	.file	"stub.bc"
	.text
	.globl	_ZN2pp12CreateModuleEv
	.align	16, 0x90
	.type	_ZN2pp12CreateModuleEv,@function
_ZN2pp12CreateModuleEv:                 # @_ZN2pp12CreateModuleEv
.Ltmp5:
	.cfi_startproc
	.cfi_personality 0, __gxx_personality_v0
.Leh_func_begin0:
	.cfi_lsda 0, .Lexception0
# BB#0:
	pushl	%esi
.Ltmp6:
	.cfi_def_cfa_offset 8
	subl	$24, %esp
.Ltmp7:
	.cfi_def_cfa_offset 32
.Ltmp8:
	.cfi_offset %esi, -8
	movl	$64, (%esp)
	calll	_Znwj
	movl	%eax, %esi
.Ltmp0:
	movl	%esi, (%esp)
	calll	_ZN8MyModuleC1Ev
.Ltmp1:
# BB#1:
	movl	%esi, %eax
	addl	$24, %esp
	popl	%esi
	ret
.LBB0_2:
.Ltmp2:
	movl	%eax, 20(%esp)
	movl	%edx, 16(%esp)
	movl	%esi, (%esp)
	calll	_ZdlPv
	movl	20(%esp), %eax
	movl	%eax, (%esp)
	calll	_Unwind_Resume
.Ltmp9:
	.size	_ZN2pp12CreateModuleEv, .Ltmp9-_ZN2pp12CreateModuleEv
.Ltmp10:
	.cfi_endproc
.Leh_func_end0:
	.section	.gcc_except_table,"a",@progbits
	.align	4
GCC_except_table0:
.Lexception0:
	.byte	255                     # @LPStart Encoding = omit
	.byte	0                       # @TType Encoding = absptr
	.byte	41                      # @TType base offset
	.byte	3                       # Call site Encoding = udata4
	.byte	39                      # Call site table length
.Lset0 = .Leh_func_begin0-.Leh_func_begin0 # >> Call Site 1 <<
	.long	.Lset0
.Lset1 = .Ltmp0-.Leh_func_begin0        #   Call between .Leh_func_begin0 and .Ltmp0
	.long	.Lset1
	.long	0                       #     has no landing pad
	.byte	0                       #   On action: cleanup
.Lset2 = .Ltmp0-.Leh_func_begin0        # >> Call Site 2 <<
	.long	.Lset2
.Lset3 = .Ltmp1-.Ltmp0                  #   Call between .Ltmp0 and .Ltmp1
	.long	.Lset3
.Lset4 = .Ltmp2-.Leh_func_begin0        #     jumps to .Ltmp2
	.long	.Lset4
	.byte	0                       #   On action: cleanup
.Lset5 = .Ltmp1-.Leh_func_begin0        # >> Call Site 3 <<
	.long	.Lset5
.Lset6 = .Leh_func_end0-.Ltmp1          #   Call between .Ltmp1 and .Leh_func_end0
	.long	.Lset6
	.long	0                       #     has no landing pad
	.byte	0                       #   On action: cleanup
	.align	4

	.section	.text._ZN8MyModuleC1Ev,"axG",@progbits,_ZN8MyModuleC1Ev,comdat
	.weak	_ZN8MyModuleC1Ev
	.align	16, 0x90
	.type	_ZN8MyModuleC1Ev,@function
_ZN8MyModuleC1Ev:                       # @_ZN8MyModuleC1Ev
.Ltmp12:
	.cfi_startproc
# BB#0:
	subl	$12, %esp
.Ltmp13:
	.cfi_def_cfa_offset 16
	movl	16(%esp), %eax
	movl	%eax, 8(%esp)
	movl	%eax, (%esp)
	calll	_ZN8MyModuleC2Ev
	addl	$12, %esp
	ret
.Ltmp14:
	.size	_ZN8MyModuleC1Ev, .Ltmp14-_ZN8MyModuleC1Ev
.Ltmp15:
	.cfi_endproc
.Leh_func_end1:

	.section	.text._ZN8MyModuleC2Ev,"axG",@progbits,_ZN8MyModuleC2Ev,comdat
	.weak	_ZN8MyModuleC2Ev
	.align	16, 0x90
	.type	_ZN8MyModuleC2Ev,@function
_ZN8MyModuleC2Ev:                       # @_ZN8MyModuleC2Ev
.Ltmp18:
	.cfi_startproc
# BB#0:
	pushl	%esi
.Ltmp19:
	.cfi_def_cfa_offset 8
	subl	$8, %esp
.Ltmp20:
	.cfi_def_cfa_offset 16
.Ltmp21:
	.cfi_offset %esi, -8
	movl	16(%esp), %esi
	movl	%esi, 4(%esp)
	movl	%esi, (%esp)
	calll	_ZN2pp6ModuleC2Ev
	movl	$_ZTV8MyModule+8, (%esi)
	addl	$8, %esp
	popl	%esi
	ret
.Ltmp22:
	.size	_ZN8MyModuleC2Ev, .Ltmp22-_ZN8MyModuleC2Ev
.Ltmp23:
	.cfi_endproc
.Leh_func_end2:

	.section	.text._ZN8MyModuleD1Ev,"axG",@progbits,_ZN8MyModuleD1Ev,comdat
	.weak	_ZN8MyModuleD1Ev
	.align	16, 0x90
	.type	_ZN8MyModuleD1Ev,@function
_ZN8MyModuleD1Ev:                       # @_ZN8MyModuleD1Ev
.Ltmp25:
	.cfi_startproc
# BB#0:
	subl	$12, %esp
.Ltmp26:
	.cfi_def_cfa_offset 16
	movl	16(%esp), %eax
	movl	%eax, 8(%esp)
	movl	%eax, (%esp)
	calll	_ZN8MyModuleD2Ev
	addl	$12, %esp
	ret
.Ltmp27:
	.size	_ZN8MyModuleD1Ev, .Ltmp27-_ZN8MyModuleD1Ev
.Ltmp28:
	.cfi_endproc
.Leh_func_end3:

	.section	.text._ZN8MyModuleD0Ev,"axG",@progbits,_ZN8MyModuleD0Ev,comdat
	.weak	_ZN8MyModuleD0Ev
	.align	16, 0x90
	.type	_ZN8MyModuleD0Ev,@function
_ZN8MyModuleD0Ev:                       # @_ZN8MyModuleD0Ev
.Ltmp34:
	.cfi_startproc
	.cfi_personality 0, __gxx_personality_v0
.Leh_func_begin4:
	.cfi_lsda 0, .Lexception4
# BB#0:
	pushl	%esi
.Ltmp35:
	.cfi_def_cfa_offset 8
	subl	$24, %esp
.Ltmp36:
	.cfi_def_cfa_offset 32
.Ltmp37:
	.cfi_offset %esi, -8
	movl	32(%esp), %esi
	movl	%esi, 20(%esp)
.Ltmp29:
	movl	%esi, (%esp)
	calll	_ZN8MyModuleD1Ev
.Ltmp30:
# BB#1:
	movl	%esi, (%esp)
	calll	_ZdlPv
	addl	$24, %esp
	popl	%esi
	ret
.LBB4_2:
.Ltmp31:
	movl	%eax, 16(%esp)
	movl	%edx, 12(%esp)
	movl	%esi, (%esp)
	calll	_ZdlPv
	movl	16(%esp), %eax
	movl	%eax, (%esp)
	calll	_Unwind_Resume
.Ltmp38:
	.size	_ZN8MyModuleD0Ev, .Ltmp38-_ZN8MyModuleD0Ev
.Ltmp39:
	.cfi_endproc
.Leh_func_end4:
	.section	.gcc_except_table,"a",@progbits
	.align	4
GCC_except_table4:
.Lexception4:
	.byte	255                     # @LPStart Encoding = omit
	.byte	0                       # @TType Encoding = absptr
	.byte	156                     # @TType base offset
	.zero	1
	.byte	3                       # Call site Encoding = udata4
	.byte	26                      # Call site table length
.Lset7 = .Ltmp29-.Leh_func_begin4       # >> Call Site 1 <<
	.long	.Lset7
.Lset8 = .Ltmp30-.Ltmp29                #   Call between .Ltmp29 and .Ltmp30
	.long	.Lset8
.Lset9 = .Ltmp31-.Leh_func_begin4       #     jumps to .Ltmp31
	.long	.Lset9
	.byte	0                       #   On action: cleanup
.Lset10 = .Ltmp30-.Leh_func_begin4      # >> Call Site 2 <<
	.long	.Lset10
.Lset11 = .Leh_func_end4-.Ltmp30        #   Call between .Ltmp30 and .Leh_func_end4
	.long	.Lset11
	.long	0                       #     has no landing pad
	.byte	0                       #   On action: cleanup
	.align	4

	.section	.text._ZN8MyModule14CreateInstanceEi,"axG",@progbits,_ZN8MyModule14CreateInstanceEi,comdat
	.weak	_ZN8MyModule14CreateInstanceEi
	.align	16, 0x90
	.type	_ZN8MyModule14CreateInstanceEi,@function
_ZN8MyModule14CreateInstanceEi:         # @_ZN8MyModule14CreateInstanceEi
.Ltmp45:
	.cfi_startproc
	.cfi_personality 0, __gxx_personality_v0
.Leh_func_begin5:
	.cfi_lsda 0, .Lexception5
# BB#0:
	pushl	%esi
.Ltmp46:
	.cfi_def_cfa_offset 8
	subl	$24, %esp
.Ltmp47:
	.cfi_def_cfa_offset 32
.Ltmp48:
	.cfi_offset %esi, -8
	movl	32(%esp), %eax
	movl	%eax, 20(%esp)
	movl	36(%esp), %eax
	movl	%eax, 16(%esp)
	movl	$32, (%esp)
	calll	_Znwj
	movl	%eax, %esi
	movl	16(%esp), %eax
.Ltmp40:
	movl	%eax, 4(%esp)
	movl	%esi, (%esp)
	calll	_ZN10MyInstanceC1Ei
.Ltmp41:
# BB#1:
	movl	%esi, %eax
	addl	$24, %esp
	popl	%esi
	ret
.LBB5_2:
.Ltmp42:
	movl	%eax, 12(%esp)
	movl	%edx, 8(%esp)
	movl	%esi, (%esp)
	calll	_ZdlPv
	movl	12(%esp), %eax
	movl	%eax, (%esp)
	calll	_Unwind_Resume
.Ltmp49:
	.size	_ZN8MyModule14CreateInstanceEi, .Ltmp49-_ZN8MyModule14CreateInstanceEi
.Ltmp50:
	.cfi_endproc
.Leh_func_end5:
	.section	.gcc_except_table,"a",@progbits
	.align	4
GCC_except_table5:
.Lexception5:
	.byte	255                     # @LPStart Encoding = omit
	.byte	0                       # @TType Encoding = absptr
	.byte	41                      # @TType base offset
	.byte	3                       # Call site Encoding = udata4
	.byte	39                      # Call site table length
.Lset12 = .Leh_func_begin5-.Leh_func_begin5 # >> Call Site 1 <<
	.long	.Lset12
.Lset13 = .Ltmp40-.Leh_func_begin5      #   Call between .Leh_func_begin5 and .Ltmp40
	.long	.Lset13
	.long	0                       #     has no landing pad
	.byte	0                       #   On action: cleanup
.Lset14 = .Ltmp40-.Leh_func_begin5      # >> Call Site 2 <<
	.long	.Lset14
.Lset15 = .Ltmp41-.Ltmp40               #   Call between .Ltmp40 and .Ltmp41
	.long	.Lset15
.Lset16 = .Ltmp42-.Leh_func_begin5      #     jumps to .Ltmp42
	.long	.Lset16
	.byte	0                       #   On action: cleanup
.Lset17 = .Ltmp41-.Leh_func_begin5      # >> Call Site 3 <<
	.long	.Lset17
.Lset18 = .Leh_func_end5-.Ltmp41        #   Call between .Ltmp41 and .Leh_func_end5
	.long	.Lset18
	.long	0                       #     has no landing pad
	.byte	0                       #   On action: cleanup
	.align	4

	.section	.text._ZN10MyInstanceC1Ei,"axG",@progbits,_ZN10MyInstanceC1Ei,comdat
	.weak	_ZN10MyInstanceC1Ei
	.align	16, 0x90
	.type	_ZN10MyInstanceC1Ei,@function
_ZN10MyInstanceC1Ei:                    # @_ZN10MyInstanceC1Ei
.Ltmp52:
	.cfi_startproc
# BB#0:
	subl	$28, %esp
.Ltmp53:
	.cfi_def_cfa_offset 32
	movl	32(%esp), %eax
	movl	%eax, 24(%esp)
	movl	36(%esp), %eax
	movl	%eax, 20(%esp)
	movl	24(%esp), %ecx
	movl	%eax, 4(%esp)
	movl	%ecx, (%esp)
	calll	_ZN10MyInstanceC2Ei
	addl	$28, %esp
	ret
.Ltmp54:
	.size	_ZN10MyInstanceC1Ei, .Ltmp54-_ZN10MyInstanceC1Ei
.Ltmp55:
	.cfi_endproc
.Leh_func_end6:

	.section	.text._ZN10MyInstanceC2Ei,"axG",@progbits,_ZN10MyInstanceC2Ei,comdat
	.weak	_ZN10MyInstanceC2Ei
	.align	16, 0x90
	.type	_ZN10MyInstanceC2Ei,@function
_ZN10MyInstanceC2Ei:                    # @_ZN10MyInstanceC2Ei
.Ltmp58:
	.cfi_startproc
# BB#0:
	pushl	%esi
.Ltmp59:
	.cfi_def_cfa_offset 8
	subl	$24, %esp
.Ltmp60:
	.cfi_def_cfa_offset 32
.Ltmp61:
	.cfi_offset %esi, -8
	movl	32(%esp), %eax
	movl	%eax, 20(%esp)
	movl	36(%esp), %eax
	movl	%eax, 16(%esp)
	movl	20(%esp), %esi
	movl	%eax, 4(%esp)
	movl	%esi, (%esp)
	calll	_ZN2pp8InstanceC2Ei
	movl	$_ZTV10MyInstance+8, (%esi)
	addl	$24, %esp
	popl	%esi
	ret
.Ltmp62:
	.size	_ZN10MyInstanceC2Ei, .Ltmp62-_ZN10MyInstanceC2Ei
.Ltmp63:
	.cfi_endproc
.Leh_func_end7:

	.section	.text._ZN10MyInstanceD1Ev,"axG",@progbits,_ZN10MyInstanceD1Ev,comdat
	.weak	_ZN10MyInstanceD1Ev
	.align	16, 0x90
	.type	_ZN10MyInstanceD1Ev,@function
_ZN10MyInstanceD1Ev:                    # @_ZN10MyInstanceD1Ev
.Ltmp65:
	.cfi_startproc
# BB#0:
	subl	$12, %esp
.Ltmp66:
	.cfi_def_cfa_offset 16
	movl	16(%esp), %eax
	movl	%eax, 8(%esp)
	movl	%eax, (%esp)
	calll	_ZN10MyInstanceD2Ev
	addl	$12, %esp
	ret
.Ltmp67:
	.size	_ZN10MyInstanceD1Ev, .Ltmp67-_ZN10MyInstanceD1Ev
.Ltmp68:
	.cfi_endproc
.Leh_func_end8:

	.section	.text._ZN10MyInstanceD0Ev,"axG",@progbits,_ZN10MyInstanceD0Ev,comdat
	.weak	_ZN10MyInstanceD0Ev
	.align	16, 0x90
	.type	_ZN10MyInstanceD0Ev,@function
_ZN10MyInstanceD0Ev:                    # @_ZN10MyInstanceD0Ev
.Ltmp74:
	.cfi_startproc
	.cfi_personality 0, __gxx_personality_v0
.Leh_func_begin9:
	.cfi_lsda 0, .Lexception9
# BB#0:
	pushl	%esi
.Ltmp75:
	.cfi_def_cfa_offset 8
	subl	$24, %esp
.Ltmp76:
	.cfi_def_cfa_offset 32
.Ltmp77:
	.cfi_offset %esi, -8
	movl	32(%esp), %esi
	movl	%esi, 20(%esp)
.Ltmp69:
	movl	%esi, (%esp)
	calll	_ZN10MyInstanceD1Ev
.Ltmp70:
# BB#1:
	movl	%esi, (%esp)
	calll	_ZdlPv
	addl	$24, %esp
	popl	%esi
	ret
.LBB9_2:
.Ltmp71:
	movl	%eax, 16(%esp)
	movl	%edx, 12(%esp)
	movl	%esi, (%esp)
	calll	_ZdlPv
	movl	16(%esp), %eax
	movl	%eax, (%esp)
	calll	_Unwind_Resume
.Ltmp78:
	.size	_ZN10MyInstanceD0Ev, .Ltmp78-_ZN10MyInstanceD0Ev
.Ltmp79:
	.cfi_endproc
.Leh_func_end9:
	.section	.gcc_except_table,"a",@progbits
	.align	4
GCC_except_table9:
.Lexception9:
	.byte	255                     # @LPStart Encoding = omit
	.byte	0                       # @TType Encoding = absptr
	.byte	156                     # @TType base offset
	.zero	1
	.byte	3                       # Call site Encoding = udata4
	.byte	26                      # Call site table length
.Lset19 = .Ltmp69-.Leh_func_begin9      # >> Call Site 1 <<
	.long	.Lset19
.Lset20 = .Ltmp70-.Ltmp69               #   Call between .Ltmp69 and .Ltmp70
	.long	.Lset20
.Lset21 = .Ltmp71-.Leh_func_begin9      #     jumps to .Ltmp71
	.long	.Lset21
	.byte	0                       #   On action: cleanup
.Lset22 = .Ltmp70-.Leh_func_begin9      # >> Call Site 2 <<
	.long	.Lset22
.Lset23 = .Leh_func_end9-.Ltmp70        #   Call between .Ltmp70 and .Leh_func_end9
	.long	.Lset23
	.long	0                       #     has no landing pad
	.byte	0                       #   On action: cleanup
	.align	4

	.section	.text._ZN10MyInstance4InitEjPPKcS2_,"axG",@progbits,_ZN10MyInstance4InitEjPPKcS2_,comdat
	.weak	_ZN10MyInstance4InitEjPPKcS2_
	.align	16, 0x90
	.type	_ZN10MyInstance4InitEjPPKcS2_,@function
_ZN10MyInstance4InitEjPPKcS2_:          # @_ZN10MyInstance4InitEjPPKcS2_
# BB#0:
	subl	$16, %esp
	movl	20(%esp), %eax
	movl	%eax, 12(%esp)
	movl	24(%esp), %eax
	movl	%eax, 8(%esp)
	movl	28(%esp), %eax
	movl	%eax, 4(%esp)
	movl	32(%esp), %eax
	movl	%eax, (%esp)
	movl	$1, %eax
	addl	$16, %esp
	ret
.Ltmp80:
	.size	_ZN10MyInstance4InitEjPPKcS2_, .Ltmp80-_ZN10MyInstance4InitEjPPKcS2_

	.section	.text._ZN10MyInstanceD2Ev,"axG",@progbits,_ZN10MyInstanceD2Ev,comdat
	.weak	_ZN10MyInstanceD2Ev
	.align	16, 0x90
	.type	_ZN10MyInstanceD2Ev,@function
_ZN10MyInstanceD2Ev:                    # @_ZN10MyInstanceD2Ev
.Ltmp82:
	.cfi_startproc
# BB#0:
	subl	$12, %esp
.Ltmp83:
	.cfi_def_cfa_offset 16
	movl	16(%esp), %eax
	movl	%eax, 8(%esp)
	movl	%eax, (%esp)
	calll	_ZN2pp8InstanceD2Ev
	addl	$12, %esp
	ret
.Ltmp84:
	.size	_ZN10MyInstanceD2Ev, .Ltmp84-_ZN10MyInstanceD2Ev
.Ltmp85:
	.cfi_endproc
.Leh_func_end11:

	.section	.text._ZN8MyModuleD2Ev,"axG",@progbits,_ZN8MyModuleD2Ev,comdat
	.weak	_ZN8MyModuleD2Ev
	.align	16, 0x90
	.type	_ZN8MyModuleD2Ev,@function
_ZN8MyModuleD2Ev:                       # @_ZN8MyModuleD2Ev
.Ltmp87:
	.cfi_startproc
# BB#0:
	subl	$12, %esp
.Ltmp88:
	.cfi_def_cfa_offset 16
	movl	16(%esp), %eax
	movl	%eax, 8(%esp)
	movl	%eax, (%esp)
	calll	_ZN2pp6ModuleD2Ev
	addl	$12, %esp
	ret
.Ltmp89:
	.size	_ZN8MyModuleD2Ev, .Ltmp89-_ZN8MyModuleD2Ev
.Ltmp90:
	.cfi_endproc
.Leh_func_end12:

	.text
	.globl	_ZN2pp10FullscreenC2ERKNS_14InstanceHandleE
	.align	16, 0x90
	.type	_ZN2pp10FullscreenC2ERKNS_14InstanceHandleE,@function
_ZN2pp10FullscreenC2ERKNS_14InstanceHandleE: # @_ZN2pp10FullscreenC2ERKNS_14InstanceHandleE
# BB#0:
	subl	$8, %esp
	movl	12(%esp), %eax
	movl	%eax, 4(%esp)
	movl	16(%esp), %eax
	movl	%eax, (%esp)
	movl	4(%esp), %eax
	movl	$_ZTVN2pp10FullscreenE+8, (%eax)
	movl	(%esp), %ecx
	movl	(%ecx), %ecx
	movl	%ecx, 4(%eax)
	addl	$8, %esp
	ret
.Ltmp91:
	.size	_ZN2pp10FullscreenC2ERKNS_14InstanceHandleE, .Ltmp91-_ZN2pp10FullscreenC2ERKNS_14InstanceHandleE

	.globl	_ZN2pp10FullscreenD0Ev
	.align	16, 0x90
	.type	_ZN2pp10FullscreenD0Ev,@function
_ZN2pp10FullscreenD0Ev:                 # @_ZN2pp10FullscreenD0Ev
.Ltmp97:
	.cfi_startproc
	.cfi_personality 0, __gxx_personality_v0
.Leh_func_begin14:
	.cfi_lsda 0, .Lexception14
# BB#0:
	pushl	%esi
.Ltmp98:
	.cfi_def_cfa_offset 8
	subl	$24, %esp
.Ltmp99:
	.cfi_def_cfa_offset 32
.Ltmp100:
	.cfi_offset %esi, -8
	movl	32(%esp), %esi
	movl	%esi, 20(%esp)
.Ltmp92:
	movl	%esi, (%esp)
	calll	_ZN2pp10FullscreenD1Ev
.Ltmp93:
# BB#1:
	movl	%esi, (%esp)
	calll	_ZdlPv
	addl	$24, %esp
	popl	%esi
	ret
.LBB14_2:
.Ltmp94:
	movl	%eax, 16(%esp)
	movl	%edx, 12(%esp)
	movl	%esi, (%esp)
	calll	_ZdlPv
	movl	16(%esp), %eax
	movl	%eax, (%esp)
	calll	_Unwind_Resume
.Ltmp101:
	.size	_ZN2pp10FullscreenD0Ev, .Ltmp101-_ZN2pp10FullscreenD0Ev
.Ltmp102:
	.cfi_endproc
.Leh_func_end14:
	.section	.gcc_except_table,"a",@progbits
	.align	4
GCC_except_table14:
.Lexception14:
	.byte	255                     # @LPStart Encoding = omit
	.byte	0                       # @TType Encoding = absptr
	.byte	156                     # @TType base offset
	.zero	1
	.byte	3                       # Call site Encoding = udata4
	.byte	26                      # Call site table length
.Lset24 = .Ltmp92-.Leh_func_begin14     # >> Call Site 1 <<
	.long	.Lset24
.Lset25 = .Ltmp93-.Ltmp92               #   Call between .Ltmp92 and .Ltmp93
	.long	.Lset25
.Lset26 = .Ltmp94-.Leh_func_begin14     #     jumps to .Ltmp94
	.long	.Lset26
	.byte	0                       #   On action: cleanup
.Lset27 = .Ltmp93-.Leh_func_begin14     # >> Call Site 2 <<
	.long	.Lset27
.Lset28 = .Leh_func_end14-.Ltmp93       #   Call between .Ltmp93 and .Leh_func_end14
	.long	.Lset28
	.long	0                       #     has no landing pad
	.byte	0                       #   On action: cleanup
	.align	4

	.text
	.globl	_ZN2pp10FullscreenD2Ev
	.align	16, 0x90
	.type	_ZN2pp10FullscreenD2Ev,@function
_ZN2pp10FullscreenD2Ev:                 # @_ZN2pp10FullscreenD2Ev
# BB#0:
	pushl	%eax
	movl	8(%esp), %eax
	movl	%eax, (%esp)
	popl	%eax
	ret
.Ltmp103:
	.size	_ZN2pp10FullscreenD2Ev, .Ltmp103-_ZN2pp10FullscreenD2Ev

	.globl	_ZN2pp10Fullscreen12IsFullscreenEv
	.align	16, 0x90
	.type	_ZN2pp10Fullscreen12IsFullscreenEv,@function
_ZN2pp10Fullscreen12IsFullscreenEv:     # @_ZN2pp10Fullscreen12IsFullscreenEv
.Ltmp107:
	.cfi_startproc
# BB#0:
	pushl	%edi
.Ltmp108:
	.cfi_def_cfa_offset 8
	pushl	%esi
.Ltmp109:
	.cfi_def_cfa_offset 12
	subl	$20, %esp
.Ltmp110:
	.cfi_def_cfa_offset 32
.Ltmp111:
	.cfi_offset %esi, -12
.Ltmp112:
	.cfi_offset %edi, -8
	movl	32(%esp), %esi
	movl	%esi, 16(%esp)
	calll	_ZN2pp12_GLOBAL__N_113has_interfaceI18PPB_Fullscreen_1_0EEbv
	xorb	%cl, %cl
	testb	%al, %al
	je	.LBB16_2
# BB#1:
	calll	_ZN2pp12_GLOBAL__N_113get_interfaceI18PPB_Fullscreen_1_0EEPKT_v
	movl	(%eax), %edi
	addl	$4, %esi
	movl	%esi, (%esp)
	calll	_ZNK2pp14InstanceHandle11pp_instanceEv
	movl	%eax, (%esp)
	calll	*%edi
	testl	%eax, %eax
	setne	%cl
.LBB16_2:
	movzbl	%cl, %eax
	addl	$20, %esp
	popl	%esi
	popl	%edi
	ret
.Ltmp113:
	.size	_ZN2pp10Fullscreen12IsFullscreenEv, .Ltmp113-_ZN2pp10Fullscreen12IsFullscreenEv
.Ltmp114:
	.cfi_endproc
.Leh_func_end16:

	.align	16, 0x90
	.type	_ZN2pp12_GLOBAL__N_113has_interfaceI18PPB_Fullscreen_1_0EEbv,@function
_ZN2pp12_GLOBAL__N_113has_interfaceI18PPB_Fullscreen_1_0EEbv: # @_ZN2pp12_GLOBAL__N_113has_interfaceI18PPB_Fullscreen_1_0EEbv
.Ltmp116:
	.cfi_startproc
# BB#0:
	subl	$12, %esp
.Ltmp117:
	.cfi_def_cfa_offset 16
	calll	_ZN2pp12_GLOBAL__N_113get_interfaceI18PPB_Fullscreen_1_0EEPKT_v
	testl	%eax, %eax
	setne	%al
	movzbl	%al, %eax
	addl	$12, %esp
	ret
.Ltmp118:
	.size	_ZN2pp12_GLOBAL__N_113has_interfaceI18PPB_Fullscreen_1_0EEbv, .Ltmp118-_ZN2pp12_GLOBAL__N_113has_interfaceI18PPB_Fullscreen_1_0EEbv
.Ltmp119:
	.cfi_endproc
.Leh_func_end17:

	.align	16, 0x90
	.type	_ZN2pp12_GLOBAL__N_113get_interfaceI18PPB_Fullscreen_1_0EEPKT_v,@function
_ZN2pp12_GLOBAL__N_113get_interfaceI18PPB_Fullscreen_1_0EEPKT_v: # @_ZN2pp12_GLOBAL__N_113get_interfaceI18PPB_Fullscreen_1_0EEPKT_v
.Ltmp129:
	.cfi_startproc
	.cfi_personality 0, __gxx_personality_v0
.Leh_func_begin18:
	.cfi_lsda 0, .Lexception18
# BB#0:
	pushl	%esi
.Ltmp130:
	.cfi_def_cfa_offset 8
	subl	$24, %esp
.Ltmp131:
	.cfi_def_cfa_offset 32
.Ltmp132:
	.cfi_offset %esi, -8
	movb	_ZGVZN2pp12_GLOBAL__N_113get_interfaceI18PPB_Fullscreen_1_0EEPKT_vE5funcs, %al
	testb	%al, %al
	jne	.LBB18_6
# BB#1:
	movl	$_ZGVZN2pp12_GLOBAL__N_113get_interfaceI18PPB_Fullscreen_1_0EEPKT_vE5funcs, (%esp)
	calll	__cxa_guard_acquire
	testl	%eax, %eax
	je	.LBB18_6
# BB#2:
.Ltmp120:
	calll	_ZN2pp6Module3GetEv
	movl	%eax, %esi
.Ltmp121:
# BB#3:
.Ltmp122:
	calll	_ZN2pp12_GLOBAL__N_114interface_nameI18PPB_Fullscreen_1_0EEPKcv
.Ltmp123:
# BB#4:
.Ltmp124:
	movl	%eax, 4(%esp)
	movl	%esi, (%esp)
	calll	_ZN2pp6Module19GetBrowserInterfaceEPKc
.Ltmp125:
# BB#5:
	movl	%eax, _ZZN2pp12_GLOBAL__N_113get_interfaceI18PPB_Fullscreen_1_0EEPKT_vE5funcs
	movl	$_ZGVZN2pp12_GLOBAL__N_113get_interfaceI18PPB_Fullscreen_1_0EEPKT_vE5funcs, (%esp)
	calll	__cxa_guard_release
.LBB18_6:
	movl	_ZZN2pp12_GLOBAL__N_113get_interfaceI18PPB_Fullscreen_1_0EEPKT_vE5funcs, %eax
	addl	$24, %esp
	popl	%esi
	ret
.LBB18_7:
.Ltmp126:
	movl	%eax, 20(%esp)
	movl	%edx, 16(%esp)
	movl	$_ZGVZN2pp12_GLOBAL__N_113get_interfaceI18PPB_Fullscreen_1_0EEPKT_vE5funcs, (%esp)
	calll	__cxa_guard_abort
	movl	20(%esp), %eax
	movl	%eax, (%esp)
	calll	_Unwind_Resume
.Ltmp133:
	.size	_ZN2pp12_GLOBAL__N_113get_interfaceI18PPB_Fullscreen_1_0EEPKT_v, .Ltmp133-_ZN2pp12_GLOBAL__N_113get_interfaceI18PPB_Fullscreen_1_0EEPKT_v
.Ltmp134:
	.cfi_endproc
.Leh_func_end18:
	.section	.gcc_except_table,"a",@progbits
	.align	4
GCC_except_table18:
.Lexception18:
	.byte	255                     # @LPStart Encoding = omit
	.byte	0                       # @TType Encoding = absptr
	.byte	41                      # @TType base offset
	.byte	3                       # Call site Encoding = udata4
	.byte	39                      # Call site table length
.Lset29 = .Leh_func_begin18-.Leh_func_begin18 # >> Call Site 1 <<
	.long	.Lset29
.Lset30 = .Ltmp120-.Leh_func_begin18    #   Call between .Leh_func_begin18 and .Ltmp120
	.long	.Lset30
	.long	0                       #     has no landing pad
	.byte	0                       #   On action: cleanup
.Lset31 = .Ltmp120-.Leh_func_begin18    # >> Call Site 2 <<
	.long	.Lset31
.Lset32 = .Ltmp125-.Ltmp120             #   Call between .Ltmp120 and .Ltmp125
	.long	.Lset32
.Lset33 = .Ltmp126-.Leh_func_begin18    #     jumps to .Ltmp126
	.long	.Lset33
	.byte	0                       #   On action: cleanup
.Lset34 = .Ltmp125-.Leh_func_begin18    # >> Call Site 3 <<
	.long	.Lset34
.Lset35 = .Leh_func_end18-.Ltmp125      #   Call between .Ltmp125 and .Leh_func_end18
	.long	.Lset35
	.long	0                       #     has no landing pad
	.byte	0                       #   On action: cleanup
	.align	4

	.section	.text._ZNK2pp14InstanceHandle11pp_instanceEv,"axG",@progbits,_ZNK2pp14InstanceHandle11pp_instanceEv,comdat
	.weak	_ZNK2pp14InstanceHandle11pp_instanceEv
	.align	16, 0x90
	.type	_ZNK2pp14InstanceHandle11pp_instanceEv,@function
_ZNK2pp14InstanceHandle11pp_instanceEv: # @_ZNK2pp14InstanceHandle11pp_instanceEv
# BB#0:
	pushl	%eax
	movl	8(%esp), %eax
	movl	%eax, (%esp)
	movl	(%eax), %eax
	popl	%edx
	ret
.Ltmp135:
	.size	_ZNK2pp14InstanceHandle11pp_instanceEv, .Ltmp135-_ZNK2pp14InstanceHandle11pp_instanceEv

	.text
	.globl	_ZN2pp10Fullscreen13SetFullscreenEb
	.align	16, 0x90
	.type	_ZN2pp10Fullscreen13SetFullscreenEb,@function
_ZN2pp10Fullscreen13SetFullscreenEb:    # @_ZN2pp10Fullscreen13SetFullscreenEb
.Ltmp139:
	.cfi_startproc
# BB#0:
	pushl	%edi
.Ltmp140:
	.cfi_def_cfa_offset 8
	pushl	%esi
.Ltmp141:
	.cfi_def_cfa_offset 12
	subl	$20, %esp
.Ltmp142:
	.cfi_def_cfa_offset 32
.Ltmp143:
	.cfi_offset %esi, -12
.Ltmp144:
	.cfi_offset %edi, -8
	movl	32(%esp), %eax
	movl	%eax, 12(%esp)
	movb	36(%esp), %al
	movb	%al, 11(%esp)
	movl	12(%esp), %esi
	calll	_ZN2pp12_GLOBAL__N_113has_interfaceI18PPB_Fullscreen_1_0EEbv
	testb	%al, %al
	jne	.LBB20_2
# BB#1:
	movb	$0, 19(%esp)
	jmp	.LBB20_3
.LBB20_2:
	calll	_ZN2pp12_GLOBAL__N_113get_interfaceI18PPB_Fullscreen_1_0EEPKT_v
	movl	4(%eax), %edi
	addl	$4, %esi
	movl	%esi, (%esp)
	calll	_ZNK2pp14InstanceHandle11pp_instanceEv
	movl	%eax, %esi
	movzbl	11(%esp), %eax
	andl	$1, %eax
	movl	%eax, (%esp)
	calll	_Z11PP_FromBoolb
	movl	%eax, 4(%esp)
	movl	%esi, (%esp)
	calll	*%edi
	movl	%eax, (%esp)
	calll	_Z9PP_ToBool7PP_Bool
	movb	%al, 19(%esp)
.LBB20_3:
	movzbl	19(%esp), %eax
	addl	$20, %esp
	popl	%esi
	popl	%edi
	ret
.Ltmp145:
	.size	_ZN2pp10Fullscreen13SetFullscreenEb, .Ltmp145-_ZN2pp10Fullscreen13SetFullscreenEb
.Ltmp146:
	.cfi_endproc
.Leh_func_end20:

	.section	.text._Z9PP_ToBool7PP_Bool,"axG",@progbits,_Z9PP_ToBool7PP_Bool,comdat
	.weak	_Z9PP_ToBool7PP_Bool
	.align	16, 0x90
	.type	_Z9PP_ToBool7PP_Bool,@function
_Z9PP_ToBool7PP_Bool:                   # @_Z9PP_ToBool7PP_Bool
# BB#0:
	pushl	%eax
	movl	8(%esp), %eax
	movl	%eax, (%esp)
	testl	%eax, %eax
	setne	%al
	movzbl	%al, %eax
	popl	%edx
	ret
.Ltmp147:
	.size	_Z9PP_ToBool7PP_Bool, .Ltmp147-_Z9PP_ToBool7PP_Bool

	.section	.text._Z11PP_FromBoolb,"axG",@progbits,_Z11PP_FromBoolb,comdat
	.weak	_Z11PP_FromBoolb
	.align	16, 0x90
	.type	_Z11PP_FromBoolb,@function
_Z11PP_FromBoolb:                       # @_Z11PP_FromBoolb
# BB#0:
	subl	$1, %esp
	movb	5(%esp), %al
	movb	%al, (%esp)
	movzbl	%al, %eax
	addl	$1, %esp
	ret
.Ltmp148:
	.size	_Z11PP_FromBoolb, .Ltmp148-_Z11PP_FromBoolb

	.text
	.globl	_ZN2pp10Fullscreen13GetScreenSizeEPNS_4SizeE
	.align	16, 0x90
	.type	_ZN2pp10Fullscreen13GetScreenSizeEPNS_4SizeE,@function
_ZN2pp10Fullscreen13GetScreenSizeEPNS_4SizeE: # @_ZN2pp10Fullscreen13GetScreenSizeEPNS_4SizeE
.Ltmp152:
	.cfi_startproc
# BB#0:
	pushl	%edi
.Ltmp153:
	.cfi_def_cfa_offset 8
	pushl	%esi
.Ltmp154:
	.cfi_def_cfa_offset 12
	subl	$20, %esp
.Ltmp155:
	.cfi_def_cfa_offset 32
.Ltmp156:
	.cfi_offset %esi, -12
.Ltmp157:
	.cfi_offset %edi, -8
	movl	32(%esp), %eax
	movl	%eax, 12(%esp)
	movl	36(%esp), %eax
	movl	%eax, 8(%esp)
	movl	12(%esp), %esi
	calll	_ZN2pp12_GLOBAL__N_113has_interfaceI18PPB_Fullscreen_1_0EEbv
	testb	%al, %al
	jne	.LBB23_2
# BB#1:
	movb	$0, 19(%esp)
	jmp	.LBB23_3
.LBB23_2:
	calll	_ZN2pp12_GLOBAL__N_113get_interfaceI18PPB_Fullscreen_1_0EEPKT_v
	movl	8(%eax), %edi
	addl	$4, %esi
	movl	%esi, (%esp)
	calll	_ZNK2pp14InstanceHandle11pp_instanceEv
	movl	%eax, %esi
	movl	8(%esp), %eax
	movl	%eax, (%esp)
	calll	_ZN2pp4Size7pp_sizeEv
	movl	%eax, 4(%esp)
	movl	%esi, (%esp)
	calll	*%edi
	movl	%eax, (%esp)
	calll	_Z9PP_ToBool7PP_Bool
	movb	%al, 19(%esp)
.LBB23_3:
	movzbl	19(%esp), %eax
	addl	$20, %esp
	popl	%esi
	popl	%edi
	ret
.Ltmp158:
	.size	_ZN2pp10Fullscreen13GetScreenSizeEPNS_4SizeE, .Ltmp158-_ZN2pp10Fullscreen13GetScreenSizeEPNS_4SizeE
.Ltmp159:
	.cfi_endproc
.Leh_func_end23:

	.section	.text._ZN2pp4Size7pp_sizeEv,"axG",@progbits,_ZN2pp4Size7pp_sizeEv,comdat
	.weak	_ZN2pp4Size7pp_sizeEv
	.align	16, 0x90
	.type	_ZN2pp4Size7pp_sizeEv,@function
_ZN2pp4Size7pp_sizeEv:                  # @_ZN2pp4Size7pp_sizeEv
# BB#0:
	pushl	%eax
	movl	8(%esp), %eax
	movl	%eax, (%esp)
	popl	%edx
	ret
.Ltmp160:
	.size	_ZN2pp4Size7pp_sizeEv, .Ltmp160-_ZN2pp4Size7pp_sizeEv

	.text
	.align	16, 0x90
	.type	_ZN2pp12_GLOBAL__N_114interface_nameI18PPB_Fullscreen_1_0EEPKcv,@function
_ZN2pp12_GLOBAL__N_114interface_nameI18PPB_Fullscreen_1_0EEPKcv: # @_ZN2pp12_GLOBAL__N_114interface_nameI18PPB_Fullscreen_1_0EEPKcv
# BB#0:
	movl	$.L.str, %eax
	ret
.Ltmp161:
	.size	_ZN2pp12_GLOBAL__N_114interface_nameI18PPB_Fullscreen_1_0EEPKcv, .Ltmp161-_ZN2pp12_GLOBAL__N_114interface_nameI18PPB_Fullscreen_1_0EEPKcv

	.globl	_ZN2pp14URLRequestInfoC2ERKNS_14InstanceHandleE
	.align	16, 0x90
	.type	_ZN2pp14URLRequestInfoC2ERKNS_14InstanceHandleE,@function
_ZN2pp14URLRequestInfoC2ERKNS_14InstanceHandleE: # @_ZN2pp14URLRequestInfoC2ERKNS_14InstanceHandleE
.Ltmp179:
	.cfi_startproc
	.cfi_personality 0, __gxx_personality_v0
.Leh_func_begin26:
	.cfi_lsda 0, .Lexception26
# BB#0:
	pushl	%edi
.Ltmp180:
	.cfi_def_cfa_offset 8
	pushl	%esi
.Ltmp181:
	.cfi_def_cfa_offset 12
	subl	$36, %esp
.Ltmp182:
	.cfi_def_cfa_offset 48
.Ltmp183:
	.cfi_offset %esi, -12
.Ltmp184:
	.cfi_offset %edi, -8
	movl	48(%esp), %eax
	movl	%eax, 32(%esp)
	movl	52(%esp), %eax
	movl	%eax, 28(%esp)
	movl	32(%esp), %esi
	movl	%esi, (%esp)
	calll	_ZN2pp8ResourceC2Ev
	movl	$_ZTVN2pp14URLRequestInfoE+8, (%esi)
.Ltmp162:
	calll	_ZN2pp12_GLOBAL__N_113has_interfaceI22PPB_URLRequestInfo_1_0EEbv
.Ltmp163:
# BB#1:
	testb	%al, %al
	je	.LBB26_6
# BB#2:
.Ltmp164:
	calll	_ZN2pp12_GLOBAL__N_113get_interfaceI22PPB_URLRequestInfo_1_0EEPKT_v
.Ltmp165:
# BB#3:
	movl	(%eax), %edi
	movl	28(%esp), %eax
.Ltmp166:
	movl	%eax, (%esp)
	calll	_ZNK2pp14InstanceHandle11pp_instanceEv
.Ltmp167:
# BB#4:
.Ltmp168:
	movl	%eax, (%esp)
	calll	*%edi
.Ltmp169:
# BB#5:
.Ltmp170:
	movl	%eax, 4(%esp)
	movl	%esi, (%esp)
	calll	_ZN2pp8Resource22PassRefFromConstructorEi
.Ltmp171:
.LBB26_6:
	addl	$36, %esp
	popl	%esi
	popl	%edi
	ret
.LBB26_7:
.Ltmp172:
	movl	%eax, 24(%esp)
	movl	%edx, 20(%esp)
.Ltmp173:
	movl	%esi, (%esp)
	calll	_ZN2pp8ResourceD2Ev
.Ltmp174:
# BB#8:
	movl	24(%esp), %eax
	movl	%eax, (%esp)
	calll	_Unwind_Resume
.LBB26_9:
.Ltmp175:
	calll	_ZSt9terminatev
.Ltmp185:
	.size	_ZN2pp14URLRequestInfoC2ERKNS_14InstanceHandleE, .Ltmp185-_ZN2pp14URLRequestInfoC2ERKNS_14InstanceHandleE
.Ltmp186:
	.cfi_endproc
.Leh_func_end26:
	.section	.gcc_except_table,"a",@progbits
	.align	4
GCC_except_table26:
.Lexception26:
	.byte	255                     # @LPStart Encoding = omit
	.byte	0                       # @TType Encoding = absptr
	.byte	175                     # @TType base offset
	.zero	1,128
	.zero	1
	.byte	3                       # Call site Encoding = udata4
	.byte	39                      # Call site table length
.Lset36 = .Ltmp162-.Leh_func_begin26    # >> Call Site 1 <<
	.long	.Lset36
.Lset37 = .Ltmp171-.Ltmp162             #   Call between .Ltmp162 and .Ltmp171
	.long	.Lset37
.Lset38 = .Ltmp172-.Leh_func_begin26    #     jumps to .Ltmp172
	.long	.Lset38
	.byte	0                       #   On action: cleanup
.Lset39 = .Ltmp173-.Leh_func_begin26    # >> Call Site 2 <<
	.long	.Lset39
.Lset40 = .Ltmp174-.Ltmp173             #   Call between .Ltmp173 and .Ltmp174
	.long	.Lset40
.Lset41 = .Ltmp175-.Leh_func_begin26    #     jumps to .Ltmp175
	.long	.Lset41
	.byte	1                       #   On action: 1
.Lset42 = .Ltmp174-.Leh_func_begin26    # >> Call Site 3 <<
	.long	.Lset42
.Lset43 = .Leh_func_end26-.Ltmp174      #   Call between .Ltmp174 and .Leh_func_end26
	.long	.Lset43
	.long	0                       #     has no landing pad
	.byte	0                       #   On action: cleanup
	.byte	1                       # >> Action Record 1 <<
                                        #   Catch TypeInfo 1
	.byte	0                       #   No further actions
                                        # >> Catch TypeInfos <<
	.long	0                       # TypeInfo 1
	.align	4

	.text
	.align	16, 0x90
	.type	_ZN2pp12_GLOBAL__N_113has_interfaceI22PPB_URLRequestInfo_1_0EEbv,@function
_ZN2pp12_GLOBAL__N_113has_interfaceI22PPB_URLRequestInfo_1_0EEbv: # @_ZN2pp12_GLOBAL__N_113has_interfaceI22PPB_URLRequestInfo_1_0EEbv
.Ltmp188:
	.cfi_startproc
# BB#0:
	subl	$12, %esp
.Ltmp189:
	.cfi_def_cfa_offset 16
	calll	_ZN2pp12_GLOBAL__N_113get_interfaceI22PPB_URLRequestInfo_1_0EEPKT_v
	testl	%eax, %eax
	setne	%al
	movzbl	%al, %eax
	addl	$12, %esp
	ret
.Ltmp190:
	.size	_ZN2pp12_GLOBAL__N_113has_interfaceI22PPB_URLRequestInfo_1_0EEbv, .Ltmp190-_ZN2pp12_GLOBAL__N_113has_interfaceI22PPB_URLRequestInfo_1_0EEbv
.Ltmp191:
	.cfi_endproc
.Leh_func_end27:

	.align	16, 0x90
	.type	_ZN2pp12_GLOBAL__N_113get_interfaceI22PPB_URLRequestInfo_1_0EEPKT_v,@function
_ZN2pp12_GLOBAL__N_113get_interfaceI22PPB_URLRequestInfo_1_0EEPKT_v: # @_ZN2pp12_GLOBAL__N_113get_interfaceI22PPB_URLRequestInfo_1_0EEPKT_v
.Ltmp201:
	.cfi_startproc
	.cfi_personality 0, __gxx_personality_v0
.Leh_func_begin28:
	.cfi_lsda 0, .Lexception28
# BB#0:
	pushl	%esi
.Ltmp202:
	.cfi_def_cfa_offset 8
	subl	$24, %esp
.Ltmp203:
	.cfi_def_cfa_offset 32
.Ltmp204:
	.cfi_offset %esi, -8
	movb	_ZGVZN2pp12_GLOBAL__N_113get_interfaceI22PPB_URLRequestInfo_1_0EEPKT_vE5funcs, %al
	testb	%al, %al
	jne	.LBB28_6
# BB#1:
	movl	$_ZGVZN2pp12_GLOBAL__N_113get_interfaceI22PPB_URLRequestInfo_1_0EEPKT_vE5funcs, (%esp)
	calll	__cxa_guard_acquire
	testl	%eax, %eax
	je	.LBB28_6
# BB#2:
.Ltmp192:
	calll	_ZN2pp6Module3GetEv
	movl	%eax, %esi
.Ltmp193:
# BB#3:
.Ltmp194:
	calll	_ZN2pp12_GLOBAL__N_114interface_nameI22PPB_URLRequestInfo_1_0EEPKcv
.Ltmp195:
# BB#4:
.Ltmp196:
	movl	%eax, 4(%esp)
	movl	%esi, (%esp)
	calll	_ZN2pp6Module19GetBrowserInterfaceEPKc
.Ltmp197:
# BB#5:
	movl	%eax, _ZZN2pp12_GLOBAL__N_113get_interfaceI22PPB_URLRequestInfo_1_0EEPKT_vE5funcs
	movl	$_ZGVZN2pp12_GLOBAL__N_113get_interfaceI22PPB_URLRequestInfo_1_0EEPKT_vE5funcs, (%esp)
	calll	__cxa_guard_release
.LBB28_6:
	movl	_ZZN2pp12_GLOBAL__N_113get_interfaceI22PPB_URLRequestInfo_1_0EEPKT_vE5funcs, %eax
	addl	$24, %esp
	popl	%esi
	ret
.LBB28_7:
.Ltmp198:
	movl	%eax, 20(%esp)
	movl	%edx, 16(%esp)
	movl	$_ZGVZN2pp12_GLOBAL__N_113get_interfaceI22PPB_URLRequestInfo_1_0EEPKT_vE5funcs, (%esp)
	calll	__cxa_guard_abort
	movl	20(%esp), %eax
	movl	%eax, (%esp)
	calll	_Unwind_Resume
.Ltmp205:
	.size	_ZN2pp12_GLOBAL__N_113get_interfaceI22PPB_URLRequestInfo_1_0EEPKT_v, .Ltmp205-_ZN2pp12_GLOBAL__N_113get_interfaceI22PPB_URLRequestInfo_1_0EEPKT_v
.Ltmp206:
	.cfi_endproc
.Leh_func_end28:
	.section	.gcc_except_table,"a",@progbits
	.align	4
GCC_except_table28:
.Lexception28:
	.byte	255                     # @LPStart Encoding = omit
	.byte	0                       # @TType Encoding = absptr
	.byte	41                      # @TType base offset
	.byte	3                       # Call site Encoding = udata4
	.byte	39                      # Call site table length
.Lset44 = .Leh_func_begin28-.Leh_func_begin28 # >> Call Site 1 <<
	.long	.Lset44
.Lset45 = .Ltmp192-.Leh_func_begin28    #   Call between .Leh_func_begin28 and .Ltmp192
	.long	.Lset45
	.long	0                       #     has no landing pad
	.byte	0                       #   On action: cleanup
.Lset46 = .Ltmp192-.Leh_func_begin28    # >> Call Site 2 <<
	.long	.Lset46
.Lset47 = .Ltmp197-.Ltmp192             #   Call between .Ltmp192 and .Ltmp197
	.long	.Lset47
.Lset48 = .Ltmp198-.Leh_func_begin28    #     jumps to .Ltmp198
	.long	.Lset48
	.byte	0                       #   On action: cleanup
.Lset49 = .Ltmp197-.Leh_func_begin28    # >> Call Site 3 <<
	.long	.Lset49
.Lset50 = .Leh_func_end28-.Ltmp197      #   Call between .Ltmp197 and .Leh_func_end28
	.long	.Lset50
	.long	0                       #     has no landing pad
	.byte	0                       #   On action: cleanup
	.align	4

	.text
	.globl	_ZN2pp14URLRequestInfoC2ERKS0_
	.align	16, 0x90
	.type	_ZN2pp14URLRequestInfoC2ERKS0_,@function
_ZN2pp14URLRequestInfoC2ERKS0_:         # @_ZN2pp14URLRequestInfoC2ERKS0_
.Ltmp209:
	.cfi_startproc
# BB#0:
	pushl	%esi
.Ltmp210:
	.cfi_def_cfa_offset 8
	subl	$24, %esp
.Ltmp211:
	.cfi_def_cfa_offset 32
.Ltmp212:
	.cfi_offset %esi, -8
	movl	32(%esp), %eax
	movl	%eax, 20(%esp)
	movl	36(%esp), %eax
	movl	%eax, 16(%esp)
	movl	20(%esp), %esi
	movl	%eax, 4(%esp)
	movl	%esi, (%esp)
	calll	_ZN2pp8ResourceC2ERKS0_
	movl	$_ZTVN2pp14URLRequestInfoE+8, (%esi)
	addl	$24, %esp
	popl	%esi
	ret
.Ltmp213:
	.size	_ZN2pp14URLRequestInfoC2ERKS0_, .Ltmp213-_ZN2pp14URLRequestInfoC2ERKS0_
.Ltmp214:
	.cfi_endproc
.Leh_func_end29:

	.globl	_ZN2pp14URLRequestInfo11SetPropertyE21PP_URLRequestPropertyRKNS_3VarE
	.align	16, 0x90
	.type	_ZN2pp14URLRequestInfo11SetPropertyE21PP_URLRequestPropertyRKNS_3VarE,@function
_ZN2pp14URLRequestInfo11SetPropertyE21PP_URLRequestPropertyRKNS_3VarE: # @_ZN2pp14URLRequestInfo11SetPropertyE21PP_URLRequestPropertyRKNS_3VarE
.Ltmp219:
	.cfi_startproc
# BB#0:
	pushl	%ebx
.Ltmp220:
	.cfi_def_cfa_offset 8
	pushl	%edi
.Ltmp221:
	.cfi_def_cfa_offset 12
	pushl	%esi
.Ltmp222:
	.cfi_def_cfa_offset 16
	subl	$64, %esp
.Ltmp223:
	.cfi_def_cfa_offset 80
.Ltmp224:
	.cfi_offset %esi, -16
.Ltmp225:
	.cfi_offset %edi, -12
.Ltmp226:
	.cfi_offset %ebx, -8
	movl	80(%esp), %eax
	movl	%eax, 56(%esp)
	movl	84(%esp), %eax
	movl	%eax, 52(%esp)
	movl	88(%esp), %eax
	movl	%eax, 48(%esp)
	movl	56(%esp), %esi
	calll	_ZN2pp12_GLOBAL__N_113has_interfaceI22PPB_URLRequestInfo_1_0EEbv
	testb	%al, %al
	jne	.LBB30_2
# BB#1:
	movb	$0, 63(%esp)
	jmp	.LBB30_3
.LBB30_2:
	calll	_ZN2pp12_GLOBAL__N_113get_interfaceI22PPB_URLRequestInfo_1_0EEPKT_v
	movl	8(%eax), %edi
	movl	%esi, (%esp)
	calll	_ZNK2pp8Resource11pp_resourceEv
	movl	%eax, %esi
	movl	52(%esp), %ebx
	movl	48(%esp), %eax
	movl	%eax, (%esp)
	calll	_ZNK2pp3Var6pp_varEv
	movsd	(%eax), %xmm0
	movsd	8(%eax), %xmm1
	movsd	%xmm1, 40(%esp)
	movsd	%xmm0, 32(%esp)
	movsd	32(%esp), %xmm0
	movsd	40(%esp), %xmm1
	movsd	%xmm1, 16(%esp)
	movsd	%xmm0, 8(%esp)
	movl	%ebx, 4(%esp)
	movl	%esi, (%esp)
	calll	*%edi
	movl	%eax, (%esp)
	calll	_Z9PP_ToBool7PP_Bool
	movb	%al, 63(%esp)
.LBB30_3:
	movzbl	63(%esp), %eax
	addl	$64, %esp
	popl	%esi
	popl	%edi
	popl	%ebx
	ret
.Ltmp227:
	.size	_ZN2pp14URLRequestInfo11SetPropertyE21PP_URLRequestPropertyRKNS_3VarE, .Ltmp227-_ZN2pp14URLRequestInfo11SetPropertyE21PP_URLRequestPropertyRKNS_3VarE
.Ltmp228:
	.cfi_endproc
.Leh_func_end30:

	.section	.text._ZNK2pp8Resource11pp_resourceEv,"axG",@progbits,_ZNK2pp8Resource11pp_resourceEv,comdat
	.weak	_ZNK2pp8Resource11pp_resourceEv
	.align	16, 0x90
	.type	_ZNK2pp8Resource11pp_resourceEv,@function
_ZNK2pp8Resource11pp_resourceEv:        # @_ZNK2pp8Resource11pp_resourceEv
# BB#0:
	pushl	%eax
	movl	8(%esp), %eax
	movl	%eax, (%esp)
	movl	4(%eax), %eax
	popl	%edx
	ret
.Ltmp229:
	.size	_ZNK2pp8Resource11pp_resourceEv, .Ltmp229-_ZNK2pp8Resource11pp_resourceEv

	.section	.text._ZNK2pp3Var6pp_varEv,"axG",@progbits,_ZNK2pp3Var6pp_varEv,comdat
	.weak	_ZNK2pp3Var6pp_varEv
	.align	16, 0x90
	.type	_ZNK2pp3Var6pp_varEv,@function
_ZNK2pp3Var6pp_varEv:                   # @_ZNK2pp3Var6pp_varEv
# BB#0:
	pushl	%eax
	movl	8(%esp), %eax
	movl	%eax, (%esp)
	addl	$4, %eax
	popl	%edx
	ret
.Ltmp230:
	.size	_ZNK2pp3Var6pp_varEv, .Ltmp230-_ZNK2pp3Var6pp_varEv

	.text
	.globl	_ZN2pp14URLRequestInfo16AppendDataToBodyEPKvj
	.align	16, 0x90
	.type	_ZN2pp14URLRequestInfo16AppendDataToBodyEPKvj,@function
_ZN2pp14URLRequestInfo16AppendDataToBodyEPKvj: # @_ZN2pp14URLRequestInfo16AppendDataToBodyEPKvj
.Ltmp234:
	.cfi_startproc
# BB#0:
	pushl	%edi
.Ltmp235:
	.cfi_def_cfa_offset 8
	pushl	%esi
.Ltmp236:
	.cfi_def_cfa_offset 12
	subl	$36, %esp
.Ltmp237:
	.cfi_def_cfa_offset 48
.Ltmp238:
	.cfi_offset %esi, -12
.Ltmp239:
	.cfi_offset %edi, -8
	movl	48(%esp), %eax
	movl	%eax, 28(%esp)
	movl	52(%esp), %eax
	movl	%eax, 24(%esp)
	movl	56(%esp), %eax
	movl	%eax, 20(%esp)
	movl	28(%esp), %esi
	calll	_ZN2pp12_GLOBAL__N_113has_interfaceI22PPB_URLRequestInfo_1_0EEbv
	testb	%al, %al
	jne	.LBB33_2
# BB#1:
	movb	$0, 35(%esp)
	jmp	.LBB33_3
.LBB33_2:
	calll	_ZN2pp12_GLOBAL__N_113get_interfaceI22PPB_URLRequestInfo_1_0EEPKT_v
	movl	12(%eax), %edi
	movl	%esi, (%esp)
	calll	_ZNK2pp8Resource11pp_resourceEv
	movl	24(%esp), %ecx
	movl	20(%esp), %edx
	movl	%edx, 8(%esp)
	movl	%ecx, 4(%esp)
	movl	%eax, (%esp)
	calll	*%edi
	movl	%eax, (%esp)
	calll	_Z9PP_ToBool7PP_Bool
	movb	%al, 35(%esp)
.LBB33_3:
	movzbl	35(%esp), %eax
	addl	$36, %esp
	popl	%esi
	popl	%edi
	ret
.Ltmp240:
	.size	_ZN2pp14URLRequestInfo16AppendDataToBodyEPKvj, .Ltmp240-_ZN2pp14URLRequestInfo16AppendDataToBodyEPKvj
.Ltmp241:
	.cfi_endproc
.Leh_func_end33:

	.globl	_ZN2pp14URLRequestInfo16AppendFileToBodyERKNS_7FileRefEd
	.align	16, 0x90
	.type	_ZN2pp14URLRequestInfo16AppendFileToBodyERKNS_7FileRefEd,@function
_ZN2pp14URLRequestInfo16AppendFileToBodyERKNS_7FileRefEd: # @_ZN2pp14URLRequestInfo16AppendFileToBodyERKNS_7FileRefEd
.Ltmp245:
	.cfi_startproc
# BB#0:
	pushl	%edi
.Ltmp246:
	.cfi_def_cfa_offset 8
	pushl	%esi
.Ltmp247:
	.cfi_def_cfa_offset 12
	subl	$52, %esp
.Ltmp248:
	.cfi_def_cfa_offset 64
.Ltmp249:
	.cfi_offset %esi, -12
.Ltmp250:
	.cfi_offset %edi, -8
	movl	64(%esp), %eax
	movl	%eax, 44(%esp)
	movl	68(%esp), %eax
	movl	%eax, 40(%esp)
	movsd	72(%esp), %xmm0
	movsd	%xmm0, 32(%esp)
	movl	44(%esp), %esi
	calll	_ZN2pp12_GLOBAL__N_113has_interfaceI22PPB_URLRequestInfo_1_0EEbv
	testb	%al, %al
	jne	.LBB34_2
# BB#1:
	movb	$0, 51(%esp)
	jmp	.LBB34_3
.LBB34_2:
	calll	_ZN2pp12_GLOBAL__N_113get_interfaceI22PPB_URLRequestInfo_1_0EEPKT_v
	movl	16(%eax), %edi
	movl	%esi, (%esp)
	calll	_ZNK2pp8Resource11pp_resourceEv
	movl	%eax, %esi
	movl	40(%esp), %eax
	movl	%eax, (%esp)
	calll	_ZNK2pp8Resource11pp_resourceEv
	movsd	32(%esp), %xmm0
	movsd	%xmm0, 24(%esp)
	movl	%eax, 4(%esp)
	movl	%esi, (%esp)
	movl	$-1, 20(%esp)
	movl	$-1, 16(%esp)
	movl	$0, 12(%esp)
	movl	$0, 8(%esp)
	calll	*%edi
	movl	%eax, (%esp)
	calll	_Z9PP_ToBool7PP_Bool
	movb	%al, 51(%esp)
.LBB34_3:
	movzbl	51(%esp), %eax
	addl	$52, %esp
	popl	%esi
	popl	%edi
	ret
.Ltmp251:
	.size	_ZN2pp14URLRequestInfo16AppendFileToBodyERKNS_7FileRefEd, .Ltmp251-_ZN2pp14URLRequestInfo16AppendFileToBodyERKNS_7FileRefEd
.Ltmp252:
	.cfi_endproc
.Leh_func_end34:

	.globl	_ZN2pp14URLRequestInfo21AppendFileRangeToBodyERKNS_7FileRefExxd
	.align	16, 0x90
	.type	_ZN2pp14URLRequestInfo21AppendFileRangeToBodyERKNS_7FileRefExxd,@function
_ZN2pp14URLRequestInfo21AppendFileRangeToBodyERKNS_7FileRefExxd: # @_ZN2pp14URLRequestInfo21AppendFileRangeToBodyERKNS_7FileRefExxd
.Ltmp258:
	.cfi_startproc
# BB#0:
	pushl	%ebp
.Ltmp259:
	.cfi_def_cfa_offset 8
	pushl	%ebx
.Ltmp260:
	.cfi_def_cfa_offset 12
	pushl	%edi
.Ltmp261:
	.cfi_def_cfa_offset 16
	pushl	%esi
.Ltmp262:
	.cfi_def_cfa_offset 20
	subl	$76, %esp
.Ltmp263:
	.cfi_def_cfa_offset 96
.Ltmp264:
	.cfi_offset %esi, -20
.Ltmp265:
	.cfi_offset %edi, -16
.Ltmp266:
	.cfi_offset %ebx, -12
.Ltmp267:
	.cfi_offset %ebp, -8
	movl	96(%esp), %eax
	movl	%eax, 68(%esp)
	movl	100(%esp), %eax
	movl	%eax, 64(%esp)
	movl	104(%esp), %eax
	movl	108(%esp), %ecx
	movl	%ecx, 60(%esp)
	movl	%eax, 56(%esp)
	movl	112(%esp), %eax
	movl	116(%esp), %ecx
	movl	%ecx, 52(%esp)
	movl	%eax, 48(%esp)
	movsd	120(%esp), %xmm0
	movsd	%xmm0, 40(%esp)
	movl	68(%esp), %esi
	calll	_ZN2pp12_GLOBAL__N_113has_interfaceI22PPB_URLRequestInfo_1_0EEbv
	testb	%al, %al
	jne	.LBB35_2
# BB#1:
	movb	$0, 75(%esp)
	jmp	.LBB35_3
.LBB35_2:
	calll	_ZN2pp12_GLOBAL__N_113get_interfaceI22PPB_URLRequestInfo_1_0EEPKT_v
	movl	16(%eax), %edi
	movl	%esi, (%esp)
	calll	_ZNK2pp8Resource11pp_resourceEv
	movl	%eax, %esi
	movl	64(%esp), %eax
	movl	%eax, (%esp)
	calll	_ZNK2pp8Resource11pp_resourceEv
	movl	56(%esp), %ecx
	movl	60(%esp), %edx
	movl	48(%esp), %ebx
	movl	52(%esp), %ebp
	movsd	40(%esp), %xmm0
	movsd	%xmm0, 24(%esp)
	movl	%ebp, 20(%esp)
	movl	%ebx, 16(%esp)
	movl	%edx, 12(%esp)
	movl	%ecx, 8(%esp)
	movl	%eax, 4(%esp)
	movl	%esi, (%esp)
	calll	*%edi
	movl	%eax, (%esp)
	calll	_Z9PP_ToBool7PP_Bool
	movb	%al, 75(%esp)
.LBB35_3:
	movzbl	75(%esp), %eax
	addl	$76, %esp
	popl	%esi
	popl	%edi
	popl	%ebx
	popl	%ebp
	ret
.Ltmp268:
	.size	_ZN2pp14URLRequestInfo21AppendFileRangeToBodyERKNS_7FileRefExxd, .Ltmp268-_ZN2pp14URLRequestInfo21AppendFileRangeToBodyERKNS_7FileRefExxd
.Ltmp269:
	.cfi_endproc
.Leh_func_end35:

	.section	.text._ZN2pp14URLRequestInfoD1Ev,"axG",@progbits,_ZN2pp14URLRequestInfoD1Ev,comdat
	.weak	_ZN2pp14URLRequestInfoD1Ev
	.align	16, 0x90
	.type	_ZN2pp14URLRequestInfoD1Ev,@function
_ZN2pp14URLRequestInfoD1Ev:             # @_ZN2pp14URLRequestInfoD1Ev
.Ltmp271:
	.cfi_startproc
# BB#0:
	subl	$12, %esp
.Ltmp272:
	.cfi_def_cfa_offset 16
	movl	16(%esp), %eax
	movl	%eax, 8(%esp)
	movl	%eax, (%esp)
	calll	_ZN2pp14URLRequestInfoD2Ev
	addl	$12, %esp
	ret
.Ltmp273:
	.size	_ZN2pp14URLRequestInfoD1Ev, .Ltmp273-_ZN2pp14URLRequestInfoD1Ev
.Ltmp274:
	.cfi_endproc
.Leh_func_end36:

	.section	.text._ZN2pp14URLRequestInfoD0Ev,"axG",@progbits,_ZN2pp14URLRequestInfoD0Ev,comdat
	.weak	_ZN2pp14URLRequestInfoD0Ev
	.align	16, 0x90
	.type	_ZN2pp14URLRequestInfoD0Ev,@function
_ZN2pp14URLRequestInfoD0Ev:             # @_ZN2pp14URLRequestInfoD0Ev
.Ltmp280:
	.cfi_startproc
	.cfi_personality 0, __gxx_personality_v0
.Leh_func_begin37:
	.cfi_lsda 0, .Lexception37
# BB#0:
	pushl	%esi
.Ltmp281:
	.cfi_def_cfa_offset 8
	subl	$24, %esp
.Ltmp282:
	.cfi_def_cfa_offset 32
.Ltmp283:
	.cfi_offset %esi, -8
	movl	32(%esp), %esi
	movl	%esi, 20(%esp)
.Ltmp275:
	movl	%esi, (%esp)
	calll	_ZN2pp14URLRequestInfoD1Ev
.Ltmp276:
# BB#1:
	movl	%esi, (%esp)
	calll	_ZdlPv
	addl	$24, %esp
	popl	%esi
	ret
.LBB37_2:
.Ltmp277:
	movl	%eax, 16(%esp)
	movl	%edx, 12(%esp)
	movl	%esi, (%esp)
	calll	_ZdlPv
	movl	16(%esp), %eax
	movl	%eax, (%esp)
	calll	_Unwind_Resume
.Ltmp284:
	.size	_ZN2pp14URLRequestInfoD0Ev, .Ltmp284-_ZN2pp14URLRequestInfoD0Ev
.Ltmp285:
	.cfi_endproc
.Leh_func_end37:
	.section	.gcc_except_table,"a",@progbits
	.align	4
GCC_except_table37:
.Lexception37:
	.byte	255                     # @LPStart Encoding = omit
	.byte	0                       # @TType Encoding = absptr
	.byte	156                     # @TType base offset
	.zero	1
	.byte	3                       # Call site Encoding = udata4
	.byte	26                      # Call site table length
.Lset51 = .Ltmp275-.Leh_func_begin37    # >> Call Site 1 <<
	.long	.Lset51
.Lset52 = .Ltmp276-.Ltmp275             #   Call between .Ltmp275 and .Ltmp276
	.long	.Lset52
.Lset53 = .Ltmp277-.Leh_func_begin37    #     jumps to .Ltmp277
	.long	.Lset53
	.byte	0                       #   On action: cleanup
.Lset54 = .Ltmp276-.Leh_func_begin37    # >> Call Site 2 <<
	.long	.Lset54
.Lset55 = .Leh_func_end37-.Ltmp276      #   Call between .Ltmp276 and .Leh_func_end37
	.long	.Lset55
	.long	0                       #     has no landing pad
	.byte	0                       #   On action: cleanup
	.align	4

	.section	.text._ZN2pp14URLRequestInfoD2Ev,"axG",@progbits,_ZN2pp14URLRequestInfoD2Ev,comdat
	.weak	_ZN2pp14URLRequestInfoD2Ev
	.align	16, 0x90
	.type	_ZN2pp14URLRequestInfoD2Ev,@function
_ZN2pp14URLRequestInfoD2Ev:             # @_ZN2pp14URLRequestInfoD2Ev
.Ltmp287:
	.cfi_startproc
# BB#0:
	subl	$12, %esp
.Ltmp288:
	.cfi_def_cfa_offset 16
	movl	16(%esp), %eax
	movl	%eax, 8(%esp)
	movl	%eax, (%esp)
	calll	_ZN2pp8ResourceD2Ev
	addl	$12, %esp
	ret
.Ltmp289:
	.size	_ZN2pp14URLRequestInfoD2Ev, .Ltmp289-_ZN2pp14URLRequestInfoD2Ev
.Ltmp290:
	.cfi_endproc
.Leh_func_end38:

	.text
	.align	16, 0x90
	.type	_ZN2pp12_GLOBAL__N_114interface_nameI22PPB_URLRequestInfo_1_0EEPKcv,@function
_ZN2pp12_GLOBAL__N_114interface_nameI22PPB_URLRequestInfo_1_0EEPKcv: # @_ZN2pp12_GLOBAL__N_114interface_nameI22PPB_URLRequestInfo_1_0EEPKcv
# BB#0:
	movl	$.L.str1, %eax
	ret
.Ltmp291:
	.size	_ZN2pp12_GLOBAL__N_114interface_nameI22PPB_URLRequestInfo_1_0EEPKcv, .Ltmp291-_ZN2pp12_GLOBAL__N_114interface_nameI22PPB_URLRequestInfo_1_0EEPKcv

	.globl	_ZN2pp16Graphics3DClientC2EPNS_8InstanceE
	.align	16, 0x90
	.type	_ZN2pp16Graphics3DClientC2EPNS_8InstanceE,@function
_ZN2pp16Graphics3DClientC2EPNS_8InstanceE: # @_ZN2pp16Graphics3DClientC2EPNS_8InstanceE
.Ltmp318:
	.cfi_startproc
	.cfi_personality 0, __gxx_personality_v0
.Leh_func_begin40:
	.cfi_lsda 0, .Lexception40
# BB#0:
	pushl	%ebp
.Ltmp319:
	.cfi_def_cfa_offset 8
	pushl	%ebx
.Ltmp320:
	.cfi_def_cfa_offset 12
	pushl	%edi
.Ltmp321:
	.cfi_def_cfa_offset 16
	pushl	%esi
.Ltmp322:
	.cfi_def_cfa_offset 20
	subl	$60, %esp
.Ltmp323:
	.cfi_def_cfa_offset 80
.Ltmp324:
	.cfi_offset %esi, -20
.Ltmp325:
	.cfi_offset %edi, -16
.Ltmp326:
	.cfi_offset %ebx, -12
.Ltmp327:
	.cfi_offset %ebp, -8
	movl	80(%esp), %eax
	movl	%eax, 56(%esp)
	movl	84(%esp), %eax
	movl	%eax, 52(%esp)
	movl	56(%esp), %edi
	movl	$_ZTVN2pp16Graphics3DClientE+8, (%edi)
	movl	52(%esp), %eax
	movl	%eax, 4(%esp)
	leal	4(%edi), %eax
	movl	%eax, (%esp)
	calll	_ZN2pp14InstanceHandleC1EPNS_8InstanceE
	calll	_ZN2pp6Module3GetEv
	movl	%eax, %esi
	leal	40(%esp), %ebx
	movl	%ebx, (%esp)
	calll	_ZNSaIcEC1Ev
.Ltmp292:
	movl	%ebx, 8(%esp)
	leal	48(%esp), %ebp
	movl	%ebp, (%esp)
	movl	$_ZN2pp12_GLOBAL__N_1L23kPPPGraphics3DInterfaceE, 4(%esp)
	calll	_ZNSsC1EPKcRKSaIcE
.Ltmp293:
# BB#1:
.Ltmp294:
	movl	%ebp, 4(%esp)
	movl	%esi, (%esp)
	movl	$_ZN2pp12_GLOBAL__N_1L20graphics3d_interfaceE, 8(%esp)
	calll	_ZN2pp6Module18AddPluginInterfaceERKSsPKv
.Ltmp295:
# BB#2:
.Ltmp299:
	movl	%ebp, (%esp)
	calll	_ZNSsD1Ev
.Ltmp300:
# BB#3:
	movl	%ebx, (%esp)
	calll	_ZNSaIcED1Ev
	movl	52(%esp), %ebp
	leal	16(%esp), %esi
	movl	%esi, (%esp)
	calll	_ZNSaIcEC1Ev
.Ltmp302:
	movl	%esi, 8(%esp)
	leal	24(%esp), %ebx
	movl	%ebx, (%esp)
	movl	$_ZN2pp12_GLOBAL__N_1L23kPPPGraphics3DInterfaceE, 4(%esp)
	calll	_ZNSsC1EPKcRKSaIcE
.Ltmp303:
# BB#4:
.Ltmp304:
	movl	%edi, 8(%esp)
	movl	%ebx, 4(%esp)
	movl	%ebp, (%esp)
	calll	_ZN2pp8Instance20AddPerInstanceObjectERKSsPv
.Ltmp305:
# BB#5:
.Ltmp310:
	movl	%ebx, (%esp)
	calll	_ZNSsD1Ev
.Ltmp311:
# BB#6:
	movl	%esi, (%esp)
	calll	_ZNSaIcED1Ev
	addl	$60, %esp
	popl	%esi
	popl	%edi
	popl	%ebx
	popl	%ebp
	ret
.LBB40_7:
.Ltmp301:
	movl	%eax, 36(%esp)
	movl	%edx, 32(%esp)
	jmp	.LBB40_9
.LBB40_8:
.Ltmp296:
	movl	%eax, 36(%esp)
	movl	%edx, 32(%esp)
.Ltmp297:
	movl	%ebp, (%esp)
	calll	_ZNSsD1Ev
.Ltmp298:
.LBB40_9:
	movl	%ebx, (%esp)
.LBB40_10:
	calll	_ZNSaIcED1Ev
	movl	36(%esp), %eax
	movl	%eax, (%esp)
	calll	_Unwind_Resume
.LBB40_11:
.Ltmp312:
	movl	%eax, 36(%esp)
	movl	%edx, 32(%esp)
	movl	%esi, (%esp)
	jmp	.LBB40_10
.LBB40_12:
.Ltmp306:
	movl	%eax, 36(%esp)
	movl	%edx, 32(%esp)
.Ltmp307:
	movl	%ebx, (%esp)
	calll	_ZNSsD1Ev
.Ltmp308:
# BB#13:
	movl	%esi, (%esp)
	jmp	.LBB40_10
.LBB40_14:
.Ltmp309:
	calll	_ZSt9terminatev
.Ltmp328:
	.size	_ZN2pp16Graphics3DClientC2EPNS_8InstanceE, .Ltmp328-_ZN2pp16Graphics3DClientC2EPNS_8InstanceE
.Ltmp329:
	.cfi_endproc
.Leh_func_end40:
	.section	.gcc_except_table,"a",@progbits
	.align	4
GCC_except_table40:
.Lexception40:
	.byte	255                     # @LPStart Encoding = omit
	.byte	0                       # @TType Encoding = absptr
	.ascii	 "\230\001"             # @TType base offset
	.byte	3                       # Call site Encoding = udata4
	.ascii	 "\217\001"             # Call site table length
.Lset56 = .Leh_func_begin40-.Leh_func_begin40 # >> Call Site 1 <<
	.long	.Lset56
.Lset57 = .Ltmp292-.Leh_func_begin40    #   Call between .Leh_func_begin40 and .Ltmp292
	.long	.Lset57
	.long	0                       #     has no landing pad
	.byte	0                       #   On action: cleanup
.Lset58 = .Ltmp292-.Leh_func_begin40    # >> Call Site 2 <<
	.long	.Lset58
.Lset59 = .Ltmp293-.Ltmp292             #   Call between .Ltmp292 and .Ltmp293
	.long	.Lset59
.Lset60 = .Ltmp301-.Leh_func_begin40    #     jumps to .Ltmp301
	.long	.Lset60
	.byte	0                       #   On action: cleanup
.Lset61 = .Ltmp294-.Leh_func_begin40    # >> Call Site 3 <<
	.long	.Lset61
.Lset62 = .Ltmp295-.Ltmp294             #   Call between .Ltmp294 and .Ltmp295
	.long	.Lset62
.Lset63 = .Ltmp296-.Leh_func_begin40    #     jumps to .Ltmp296
	.long	.Lset63
	.byte	0                       #   On action: cleanup
.Lset64 = .Ltmp299-.Leh_func_begin40    # >> Call Site 4 <<
	.long	.Lset64
.Lset65 = .Ltmp300-.Ltmp299             #   Call between .Ltmp299 and .Ltmp300
	.long	.Lset65
.Lset66 = .Ltmp301-.Leh_func_begin40    #     jumps to .Ltmp301
	.long	.Lset66
	.byte	0                       #   On action: cleanup
.Lset67 = .Ltmp302-.Leh_func_begin40    # >> Call Site 5 <<
	.long	.Lset67
.Lset68 = .Ltmp303-.Ltmp302             #   Call between .Ltmp302 and .Ltmp303
	.long	.Lset68
.Lset69 = .Ltmp312-.Leh_func_begin40    #     jumps to .Ltmp312
	.long	.Lset69
	.byte	0                       #   On action: cleanup
.Lset70 = .Ltmp304-.Leh_func_begin40    # >> Call Site 6 <<
	.long	.Lset70
.Lset71 = .Ltmp305-.Ltmp304             #   Call between .Ltmp304 and .Ltmp305
	.long	.Lset71
.Lset72 = .Ltmp306-.Leh_func_begin40    #     jumps to .Ltmp306
	.long	.Lset72
	.byte	0                       #   On action: cleanup
.Lset73 = .Ltmp310-.Leh_func_begin40    # >> Call Site 7 <<
	.long	.Lset73
.Lset74 = .Ltmp311-.Ltmp310             #   Call between .Ltmp310 and .Ltmp311
	.long	.Lset74
.Lset75 = .Ltmp312-.Leh_func_begin40    #     jumps to .Ltmp312
	.long	.Lset75
	.byte	0                       #   On action: cleanup
.Lset76 = .Ltmp297-.Leh_func_begin40    # >> Call Site 8 <<
	.long	.Lset76
.Lset77 = .Ltmp298-.Ltmp297             #   Call between .Ltmp297 and .Ltmp298
	.long	.Lset77
.Lset78 = .Ltmp309-.Leh_func_begin40    #     jumps to .Ltmp309
	.long	.Lset78
	.byte	1                       #   On action: 1
.Lset79 = .Ltmp298-.Leh_func_begin40    # >> Call Site 9 <<
	.long	.Lset79
.Lset80 = .Ltmp307-.Ltmp298             #   Call between .Ltmp298 and .Ltmp307
	.long	.Lset80
	.long	0                       #     has no landing pad
	.byte	0                       #   On action: cleanup
.Lset81 = .Ltmp307-.Leh_func_begin40    # >> Call Site 10 <<
	.long	.Lset81
.Lset82 = .Ltmp308-.Ltmp307             #   Call between .Ltmp307 and .Ltmp308
	.long	.Lset82
.Lset83 = .Ltmp309-.Leh_func_begin40    #     jumps to .Ltmp309
	.long	.Lset83
	.byte	1                       #   On action: 1
.Lset84 = .Ltmp308-.Leh_func_begin40    # >> Call Site 11 <<
	.long	.Lset84
.Lset85 = .Leh_func_end40-.Ltmp308      #   Call between .Ltmp308 and .Leh_func_end40
	.long	.Lset85
	.long	0                       #     has no landing pad
	.byte	0                       #   On action: cleanup
	.byte	1                       # >> Action Record 1 <<
                                        #   Catch TypeInfo 1
	.byte	0                       #   No further actions
                                        # >> Catch TypeInfos <<
	.long	0                       # TypeInfo 1
	.align	4

	.text
	.globl	_ZN2pp16Graphics3DClientD0Ev
	.align	16, 0x90
	.type	_ZN2pp16Graphics3DClientD0Ev,@function
_ZN2pp16Graphics3DClientD0Ev:           # @_ZN2pp16Graphics3DClientD0Ev
.Ltmp335:
	.cfi_startproc
	.cfi_personality 0, __gxx_personality_v0
.Leh_func_begin41:
	.cfi_lsda 0, .Lexception41
# BB#0:
	pushl	%esi
.Ltmp336:
	.cfi_def_cfa_offset 8
	subl	$24, %esp
.Ltmp337:
	.cfi_def_cfa_offset 32
.Ltmp338:
	.cfi_offset %esi, -8
	movl	32(%esp), %esi
	movl	%esi, 20(%esp)
.Ltmp330:
	movl	%esi, (%esp)
	calll	_ZN2pp16Graphics3DClientD1Ev
.Ltmp331:
# BB#1:
	movl	%esi, (%esp)
	calll	_ZdlPv
	addl	$24, %esp
	popl	%esi
	ret
.LBB41_2:
.Ltmp332:
	movl	%eax, 16(%esp)
	movl	%edx, 12(%esp)
	movl	%esi, (%esp)
	calll	_ZdlPv
	movl	16(%esp), %eax
	movl	%eax, (%esp)
	calll	_Unwind_Resume
.Ltmp339:
	.size	_ZN2pp16Graphics3DClientD0Ev, .Ltmp339-_ZN2pp16Graphics3DClientD0Ev
.Ltmp340:
	.cfi_endproc
.Leh_func_end41:
	.section	.gcc_except_table,"a",@progbits
	.align	4
GCC_except_table41:
.Lexception41:
	.byte	255                     # @LPStart Encoding = omit
	.byte	0                       # @TType Encoding = absptr
	.byte	156                     # @TType base offset
	.zero	1
	.byte	3                       # Call site Encoding = udata4
	.byte	26                      # Call site table length
.Lset86 = .Ltmp330-.Leh_func_begin41    # >> Call Site 1 <<
	.long	.Lset86
.Lset87 = .Ltmp331-.Ltmp330             #   Call between .Ltmp330 and .Ltmp331
	.long	.Lset87
.Lset88 = .Ltmp332-.Leh_func_begin41    #     jumps to .Ltmp332
	.long	.Lset88
	.byte	0                       #   On action: cleanup
.Lset89 = .Ltmp331-.Leh_func_begin41    # >> Call Site 2 <<
	.long	.Lset89
.Lset90 = .Leh_func_end41-.Ltmp331      #   Call between .Ltmp331 and .Leh_func_end41
	.long	.Lset90
	.long	0                       #     has no landing pad
	.byte	0                       #   On action: cleanup
	.align	4

	.text
	.globl	_ZN2pp16Graphics3DClientD2Ev
	.align	16, 0x90
	.type	_ZN2pp16Graphics3DClientD2Ev,@function
_ZN2pp16Graphics3DClientD2Ev:           # @_ZN2pp16Graphics3DClientD2Ev
.Ltmp356:
	.cfi_startproc
	.cfi_personality 0, __gxx_personality_v0
.Leh_func_begin42:
	.cfi_lsda 0, .Lexception42
# BB#0:
	pushl	%ebx
.Ltmp357:
	.cfi_def_cfa_offset 8
	pushl	%edi
.Ltmp358:
	.cfi_def_cfa_offset 12
	pushl	%esi
.Ltmp359:
	.cfi_def_cfa_offset 16
	subl	$48, %esp
.Ltmp360:
	.cfi_def_cfa_offset 64
.Ltmp361:
	.cfi_offset %esi, -16
.Ltmp362:
	.cfi_offset %edi, -12
.Ltmp363:
	.cfi_offset %ebx, -8
	movl	64(%esp), %ebx
	movl	%ebx, 44(%esp)
	movl	$_ZTVN2pp16Graphics3DClientE+8, (%ebx)
	leal	32(%esp), %esi
	movl	%esi, (%esp)
	calll	_ZNSaIcEC1Ev
.Ltmp341:
	movl	%esi, 8(%esp)
	leal	40(%esp), %edi
	movl	%edi, (%esp)
	movl	$_ZN2pp12_GLOBAL__N_1L23kPPPGraphics3DInterfaceE, 4(%esp)
	calll	_ZNSsC1EPKcRKSaIcE
.Ltmp342:
# BB#1:
.Ltmp343:
	movl	%ebx, 8(%esp)
	leal	4(%ebx), %eax
	movl	%edi, 4(%esp)
	movl	%eax, (%esp)
	calll	_ZN2pp8Instance23RemovePerInstanceObjectERKNS_14InstanceHandleERKSsPv
.Ltmp344:
# BB#2:
.Ltmp349:
	movl	%edi, (%esp)
	calll	_ZNSsD1Ev
.Ltmp350:
# BB#3:
	movl	%esi, (%esp)
	calll	_ZNSaIcED1Ev
	addl	$48, %esp
	popl	%esi
	popl	%edi
	popl	%ebx
	ret
.LBB42_4:
.Ltmp351:
	movl	%eax, 28(%esp)
	movl	%edx, 24(%esp)
	jmp	.LBB42_6
.LBB42_5:
.Ltmp345:
	movl	%eax, 28(%esp)
	movl	%edx, 24(%esp)
.Ltmp346:
	movl	%edi, (%esp)
	calll	_ZNSsD1Ev
.Ltmp347:
.LBB42_6:
	movl	%esi, (%esp)
	calll	_ZNSaIcED1Ev
	movl	28(%esp), %eax
	movl	%eax, (%esp)
	calll	_Unwind_Resume
.LBB42_7:
.Ltmp348:
	calll	_ZSt9terminatev
.Ltmp364:
	.size	_ZN2pp16Graphics3DClientD2Ev, .Ltmp364-_ZN2pp16Graphics3DClientD2Ev
.Ltmp365:
	.cfi_endproc
.Leh_func_end42:
	.section	.gcc_except_table,"a",@progbits
	.align	4
GCC_except_table42:
.Lexception42:
	.byte	255                     # @LPStart Encoding = omit
	.byte	0                       # @TType Encoding = absptr
	.byte	73                      # @TType base offset
	.byte	3                       # Call site Encoding = udata4
	.byte	65                      # Call site table length
.Lset91 = .Ltmp341-.Leh_func_begin42    # >> Call Site 1 <<
	.long	.Lset91
.Lset92 = .Ltmp342-.Ltmp341             #   Call between .Ltmp341 and .Ltmp342
	.long	.Lset92
.Lset93 = .Ltmp351-.Leh_func_begin42    #     jumps to .Ltmp351
	.long	.Lset93
	.byte	0                       #   On action: cleanup
.Lset94 = .Ltmp343-.Leh_func_begin42    # >> Call Site 2 <<
	.long	.Lset94
.Lset95 = .Ltmp344-.Ltmp343             #   Call between .Ltmp343 and .Ltmp344
	.long	.Lset95
.Lset96 = .Ltmp345-.Leh_func_begin42    #     jumps to .Ltmp345
	.long	.Lset96
	.byte	0                       #   On action: cleanup
.Lset97 = .Ltmp349-.Leh_func_begin42    # >> Call Site 3 <<
	.long	.Lset97
.Lset98 = .Ltmp350-.Ltmp349             #   Call between .Ltmp349 and .Ltmp350
	.long	.Lset98
.Lset99 = .Ltmp351-.Leh_func_begin42    #     jumps to .Ltmp351
	.long	.Lset99
	.byte	0                       #   On action: cleanup
.Lset100 = .Ltmp346-.Leh_func_begin42   # >> Call Site 4 <<
	.long	.Lset100
.Lset101 = .Ltmp347-.Ltmp346            #   Call between .Ltmp346 and .Ltmp347
	.long	.Lset101
.Lset102 = .Ltmp348-.Leh_func_begin42   #     jumps to .Ltmp348
	.long	.Lset102
	.byte	1                       #   On action: 1
.Lset103 = .Ltmp347-.Leh_func_begin42   # >> Call Site 5 <<
	.long	.Lset103
.Lset104 = .Leh_func_end42-.Ltmp347     #   Call between .Ltmp347 and .Leh_func_end42
	.long	.Lset104
	.long	0                       #     has no landing pad
	.byte	0                       #   On action: cleanup
	.byte	1                       # >> Action Record 1 <<
                                        #   Catch TypeInfo 1
	.byte	0                       #   No further actions
                                        # >> Catch TypeInfos <<
	.long	0                       # TypeInfo 1
	.align	4

	.text
	.align	16, 0x90
	.type	_ZN2pp12_GLOBAL__N_122Graphics3D_ContextLostEi,@function
_ZN2pp12_GLOBAL__N_122Graphics3D_ContextLostEi: # @_ZN2pp12_GLOBAL__N_122Graphics3D_ContextLostEi
.Ltmp381:
	.cfi_startproc
	.cfi_personality 0, __gxx_personality_v0
.Leh_func_begin43:
	.cfi_lsda 0, .Lexception43
# BB#0:
	pushl	%ebx
.Ltmp382:
	.cfi_def_cfa_offset 8
	pushl	%edi
.Ltmp383:
	.cfi_def_cfa_offset 12
	pushl	%esi
.Ltmp384:
	.cfi_def_cfa_offset 16
	subl	$48, %esp
.Ltmp385:
	.cfi_def_cfa_offset 64
.Ltmp386:
	.cfi_offset %esi, -16
.Ltmp387:
	.cfi_offset %edi, -12
.Ltmp388:
	.cfi_offset %ebx, -8
	movl	64(%esp), %esi
	movl	%esi, 44(%esp)
	leal	24(%esp), %edi
	movl	%edi, (%esp)
	calll	_ZNSaIcEC1Ev
.Ltmp366:
	movl	%edi, 8(%esp)
	leal	32(%esp), %ebx
	movl	%ebx, (%esp)
	movl	$_ZN2pp12_GLOBAL__N_1L23kPPPGraphics3DInterfaceE, 4(%esp)
	calll	_ZNSsC1EPKcRKSaIcE
.Ltmp367:
# BB#1:
.Ltmp368:
	movl	%ebx, 4(%esp)
	movl	%esi, (%esp)
	calll	_ZN2pp8Instance20GetPerInstanceObjectEiRKSs
	movl	%eax, %esi
.Ltmp369:
# BB#2:
.Ltmp374:
	movl	%ebx, (%esp)
	calll	_ZNSsD1Ev
.Ltmp375:
# BB#3:
	movl	%edi, (%esp)
	calll	_ZNSaIcED1Ev
	movl	%esi, 40(%esp)
	testl	%esi, %esi
	je	.LBB43_5
# BB#4:
	movl	40(%esp), %ecx
	movl	(%ecx), %eax
	movl	%ecx, (%esp)
	calll	*8(%eax)
.LBB43_5:
	addl	$48, %esp
	popl	%esi
	popl	%edi
	popl	%ebx
	ret
.LBB43_6:
.Ltmp376:
	movl	%eax, 20(%esp)
	movl	%edx, 16(%esp)
	jmp	.LBB43_8
.LBB43_7:
.Ltmp370:
	movl	%eax, 20(%esp)
	movl	%edx, 16(%esp)
.Ltmp371:
	movl	%ebx, (%esp)
	calll	_ZNSsD1Ev
.Ltmp372:
.LBB43_8:
	movl	%edi, (%esp)
	calll	_ZNSaIcED1Ev
	movl	20(%esp), %eax
	movl	%eax, (%esp)
	calll	_Unwind_Resume
.LBB43_9:
.Ltmp373:
	calll	_ZSt9terminatev
.Ltmp389:
	.size	_ZN2pp12_GLOBAL__N_122Graphics3D_ContextLostEi, .Ltmp389-_ZN2pp12_GLOBAL__N_122Graphics3D_ContextLostEi
.Ltmp390:
	.cfi_endproc
.Leh_func_end43:
	.section	.gcc_except_table,"a",@progbits
	.align	4
GCC_except_table43:
.Lexception43:
	.byte	255                     # @LPStart Encoding = omit
	.byte	0                       # @TType Encoding = absptr
	.byte	214                     # @TType base offset
	.zero	2,128
	.zero	1
	.byte	3                       # Call site Encoding = udata4
	.byte	78                      # Call site table length
.Lset105 = .Ltmp366-.Leh_func_begin43   # >> Call Site 1 <<
	.long	.Lset105
.Lset106 = .Ltmp367-.Ltmp366            #   Call between .Ltmp366 and .Ltmp367
	.long	.Lset106
.Lset107 = .Ltmp376-.Leh_func_begin43   #     jumps to .Ltmp376
	.long	.Lset107
	.byte	0                       #   On action: cleanup
.Lset108 = .Ltmp368-.Leh_func_begin43   # >> Call Site 2 <<
	.long	.Lset108
.Lset109 = .Ltmp369-.Ltmp368            #   Call between .Ltmp368 and .Ltmp369
	.long	.Lset109
.Lset110 = .Ltmp370-.Leh_func_begin43   #     jumps to .Ltmp370
	.long	.Lset110
	.byte	0                       #   On action: cleanup
.Lset111 = .Ltmp374-.Leh_func_begin43   # >> Call Site 3 <<
	.long	.Lset111
.Lset112 = .Ltmp375-.Ltmp374            #   Call between .Ltmp374 and .Ltmp375
	.long	.Lset112
.Lset113 = .Ltmp376-.Leh_func_begin43   #     jumps to .Ltmp376
	.long	.Lset113
	.byte	0                       #   On action: cleanup
.Lset114 = .Ltmp375-.Leh_func_begin43   # >> Call Site 4 <<
	.long	.Lset114
.Lset115 = .Ltmp371-.Ltmp375            #   Call between .Ltmp375 and .Ltmp371
	.long	.Lset115
	.long	0                       #     has no landing pad
	.byte	0                       #   On action: cleanup
.Lset116 = .Ltmp371-.Leh_func_begin43   # >> Call Site 5 <<
	.long	.Lset116
.Lset117 = .Ltmp372-.Ltmp371            #   Call between .Ltmp371 and .Ltmp372
	.long	.Lset117
.Lset118 = .Ltmp373-.Leh_func_begin43   #     jumps to .Ltmp373
	.long	.Lset118
	.byte	1                       #   On action: 1
.Lset119 = .Ltmp372-.Leh_func_begin43   # >> Call Site 6 <<
	.long	.Lset119
.Lset120 = .Leh_func_end43-.Ltmp372     #   Call between .Ltmp372 and .Leh_func_end43
	.long	.Lset120
	.long	0                       #     has no landing pad
	.byte	0                       #   On action: cleanup
	.byte	1                       # >> Action Record 1 <<
                                        #   Catch TypeInfo 1
	.byte	0                       #   No further actions
                                        # >> Catch TypeInfos <<
	.long	0                       # TypeInfo 1
	.align	4

	.text
	.globl	_ZN2pp9MouseLockC2EPNS_8InstanceE
	.align	16, 0x90
	.type	_ZN2pp9MouseLockC2EPNS_8InstanceE,@function
_ZN2pp9MouseLockC2EPNS_8InstanceE:      # @_ZN2pp9MouseLockC2EPNS_8InstanceE
.Ltmp417:
	.cfi_startproc
	.cfi_personality 0, __gxx_personality_v0
.Leh_func_begin44:
	.cfi_lsda 0, .Lexception44
# BB#0:
	pushl	%ebp
.Ltmp418:
	.cfi_def_cfa_offset 8
	pushl	%ebx
.Ltmp419:
	.cfi_def_cfa_offset 12
	pushl	%edi
.Ltmp420:
	.cfi_def_cfa_offset 16
	pushl	%esi
.Ltmp421:
	.cfi_def_cfa_offset 20
	subl	$60, %esp
.Ltmp422:
	.cfi_def_cfa_offset 80
.Ltmp423:
	.cfi_offset %esi, -20
.Ltmp424:
	.cfi_offset %edi, -16
.Ltmp425:
	.cfi_offset %ebx, -12
.Ltmp426:
	.cfi_offset %ebp, -8
	movl	80(%esp), %eax
	movl	%eax, 56(%esp)
	movl	84(%esp), %eax
	movl	%eax, 52(%esp)
	movl	56(%esp), %edi
	movl	$_ZTVN2pp9MouseLockE+8, (%edi)
	movl	52(%esp), %eax
	movl	%eax, 4(%esp)
	leal	4(%edi), %eax
	movl	%eax, (%esp)
	calll	_ZN2pp14InstanceHandleC1EPNS_8InstanceE
	calll	_ZN2pp6Module3GetEv
	movl	%eax, %esi
	leal	40(%esp), %ebx
	movl	%ebx, (%esp)
	calll	_ZNSaIcEC1Ev
.Ltmp391:
	movl	%ebx, 8(%esp)
	leal	48(%esp), %ebp
	movl	%ebp, (%esp)
	movl	$_ZN2pp12_GLOBAL__N_1L22kPPPMouseLockInterfaceE, 4(%esp)
	calll	_ZNSsC1EPKcRKSaIcE
.Ltmp392:
# BB#1:
.Ltmp393:
	movl	%ebp, 4(%esp)
	movl	%esi, (%esp)
	movl	$_ZN2pp12_GLOBAL__N_1L14ppp_mouse_lockE, 8(%esp)
	calll	_ZN2pp6Module18AddPluginInterfaceERKSsPKv
.Ltmp394:
# BB#2:
.Ltmp398:
	movl	%ebp, (%esp)
	calll	_ZNSsD1Ev
.Ltmp399:
# BB#3:
	movl	%ebx, (%esp)
	calll	_ZNSaIcED1Ev
	movl	52(%esp), %ebp
	leal	16(%esp), %esi
	movl	%esi, (%esp)
	calll	_ZNSaIcEC1Ev
.Ltmp401:
	movl	%esi, 8(%esp)
	leal	24(%esp), %ebx
	movl	%ebx, (%esp)
	movl	$_ZN2pp12_GLOBAL__N_1L22kPPPMouseLockInterfaceE, 4(%esp)
	calll	_ZNSsC1EPKcRKSaIcE
.Ltmp402:
# BB#4:
.Ltmp403:
	movl	%edi, 8(%esp)
	movl	%ebx, 4(%esp)
	movl	%ebp, (%esp)
	calll	_ZN2pp8Instance20AddPerInstanceObjectERKSsPv
.Ltmp404:
# BB#5:
.Ltmp409:
	movl	%ebx, (%esp)
	calll	_ZNSsD1Ev
.Ltmp410:
# BB#6:
	movl	%esi, (%esp)
	calll	_ZNSaIcED1Ev
	addl	$60, %esp
	popl	%esi
	popl	%edi
	popl	%ebx
	popl	%ebp
	ret
.LBB44_7:
.Ltmp400:
	movl	%eax, 36(%esp)
	movl	%edx, 32(%esp)
	jmp	.LBB44_9
.LBB44_8:
.Ltmp395:
	movl	%eax, 36(%esp)
	movl	%edx, 32(%esp)
.Ltmp396:
	movl	%ebp, (%esp)
	calll	_ZNSsD1Ev
.Ltmp397:
.LBB44_9:
	movl	%ebx, (%esp)
.LBB44_10:
	calll	_ZNSaIcED1Ev
	movl	36(%esp), %eax
	movl	%eax, (%esp)
	calll	_Unwind_Resume
.LBB44_11:
.Ltmp411:
	movl	%eax, 36(%esp)
	movl	%edx, 32(%esp)
	movl	%esi, (%esp)
	jmp	.LBB44_10
.LBB44_12:
.Ltmp405:
	movl	%eax, 36(%esp)
	movl	%edx, 32(%esp)
.Ltmp406:
	movl	%ebx, (%esp)
	calll	_ZNSsD1Ev
.Ltmp407:
# BB#13:
	movl	%esi, (%esp)
	jmp	.LBB44_10
.LBB44_14:
.Ltmp408:
	calll	_ZSt9terminatev
.Ltmp427:
	.size	_ZN2pp9MouseLockC2EPNS_8InstanceE, .Ltmp427-_ZN2pp9MouseLockC2EPNS_8InstanceE
.Ltmp428:
	.cfi_endproc
.Leh_func_end44:
	.section	.gcc_except_table,"a",@progbits
	.align	4
GCC_except_table44:
.Lexception44:
	.byte	255                     # @LPStart Encoding = omit
	.byte	0                       # @TType Encoding = absptr
	.ascii	 "\230\001"             # @TType base offset
	.byte	3                       # Call site Encoding = udata4
	.ascii	 "\217\001"             # Call site table length
.Lset121 = .Leh_func_begin44-.Leh_func_begin44 # >> Call Site 1 <<
	.long	.Lset121
.Lset122 = .Ltmp391-.Leh_func_begin44   #   Call between .Leh_func_begin44 and .Ltmp391
	.long	.Lset122
	.long	0                       #     has no landing pad
	.byte	0                       #   On action: cleanup
.Lset123 = .Ltmp391-.Leh_func_begin44   # >> Call Site 2 <<
	.long	.Lset123
.Lset124 = .Ltmp392-.Ltmp391            #   Call between .Ltmp391 and .Ltmp392
	.long	.Lset124
.Lset125 = .Ltmp400-.Leh_func_begin44   #     jumps to .Ltmp400
	.long	.Lset125
	.byte	0                       #   On action: cleanup
.Lset126 = .Ltmp393-.Leh_func_begin44   # >> Call Site 3 <<
	.long	.Lset126
.Lset127 = .Ltmp394-.Ltmp393            #   Call between .Ltmp393 and .Ltmp394
	.long	.Lset127
.Lset128 = .Ltmp395-.Leh_func_begin44   #     jumps to .Ltmp395
	.long	.Lset128
	.byte	0                       #   On action: cleanup
.Lset129 = .Ltmp398-.Leh_func_begin44   # >> Call Site 4 <<
	.long	.Lset129
.Lset130 = .Ltmp399-.Ltmp398            #   Call between .Ltmp398 and .Ltmp399
	.long	.Lset130
.Lset131 = .Ltmp400-.Leh_func_begin44   #     jumps to .Ltmp400
	.long	.Lset131
	.byte	0                       #   On action: cleanup
.Lset132 = .Ltmp401-.Leh_func_begin44   # >> Call Site 5 <<
	.long	.Lset132
.Lset133 = .Ltmp402-.Ltmp401            #   Call between .Ltmp401 and .Ltmp402
	.long	.Lset133
.Lset134 = .Ltmp411-.Leh_func_begin44   #     jumps to .Ltmp411
	.long	.Lset134
	.byte	0                       #   On action: cleanup
.Lset135 = .Ltmp403-.Leh_func_begin44   # >> Call Site 6 <<
	.long	.Lset135
.Lset136 = .Ltmp404-.Ltmp403            #   Call between .Ltmp403 and .Ltmp404
	.long	.Lset136
.Lset137 = .Ltmp405-.Leh_func_begin44   #     jumps to .Ltmp405
	.long	.Lset137
	.byte	0                       #   On action: cleanup
.Lset138 = .Ltmp409-.Leh_func_begin44   # >> Call Site 7 <<
	.long	.Lset138
.Lset139 = .Ltmp410-.Ltmp409            #   Call between .Ltmp409 and .Ltmp410
	.long	.Lset139
.Lset140 = .Ltmp411-.Leh_func_begin44   #     jumps to .Ltmp411
	.long	.Lset140
	.byte	0                       #   On action: cleanup
.Lset141 = .Ltmp396-.Leh_func_begin44   # >> Call Site 8 <<
	.long	.Lset141
.Lset142 = .Ltmp397-.Ltmp396            #   Call between .Ltmp396 and .Ltmp397
	.long	.Lset142
.Lset143 = .Ltmp408-.Leh_func_begin44   #     jumps to .Ltmp408
	.long	.Lset143
	.byte	1                       #   On action: 1
.Lset144 = .Ltmp397-.Leh_func_begin44   # >> Call Site 9 <<
	.long	.Lset144
.Lset145 = .Ltmp406-.Ltmp397            #   Call between .Ltmp397 and .Ltmp406
	.long	.Lset145
	.long	0                       #     has no landing pad
	.byte	0                       #   On action: cleanup
.Lset146 = .Ltmp406-.Leh_func_begin44   # >> Call Site 10 <<
	.long	.Lset146
.Lset147 = .Ltmp407-.Ltmp406            #   Call between .Ltmp406 and .Ltmp407
	.long	.Lset147
.Lset148 = .Ltmp408-.Leh_func_begin44   #     jumps to .Ltmp408
	.long	.Lset148
	.byte	1                       #   On action: 1
.Lset149 = .Ltmp407-.Leh_func_begin44   # >> Call Site 11 <<
	.long	.Lset149
.Lset150 = .Leh_func_end44-.Ltmp407     #   Call between .Ltmp407 and .Leh_func_end44
	.long	.Lset150
	.long	0                       #     has no landing pad
	.byte	0                       #   On action: cleanup
	.byte	1                       # >> Action Record 1 <<
                                        #   Catch TypeInfo 1
	.byte	0                       #   No further actions
                                        # >> Catch TypeInfos <<
	.long	0                       # TypeInfo 1
	.align	4

	.text
	.globl	_ZN2pp9MouseLockD0Ev
	.align	16, 0x90
	.type	_ZN2pp9MouseLockD0Ev,@function
_ZN2pp9MouseLockD0Ev:                   # @_ZN2pp9MouseLockD0Ev
.Ltmp434:
	.cfi_startproc
	.cfi_personality 0, __gxx_personality_v0
.Leh_func_begin45:
	.cfi_lsda 0, .Lexception45
# BB#0:
	pushl	%esi
.Ltmp435:
	.cfi_def_cfa_offset 8
	subl	$24, %esp
.Ltmp436:
	.cfi_def_cfa_offset 32
.Ltmp437:
	.cfi_offset %esi, -8
	movl	32(%esp), %esi
	movl	%esi, 20(%esp)
.Ltmp429:
	movl	%esi, (%esp)
	calll	_ZN2pp9MouseLockD1Ev
.Ltmp430:
# BB#1:
	movl	%esi, (%esp)
	calll	_ZdlPv
	addl	$24, %esp
	popl	%esi
	ret
.LBB45_2:
.Ltmp431:
	movl	%eax, 16(%esp)
	movl	%edx, 12(%esp)
	movl	%esi, (%esp)
	calll	_ZdlPv
	movl	16(%esp), %eax
	movl	%eax, (%esp)
	calll	_Unwind_Resume
.Ltmp438:
	.size	_ZN2pp9MouseLockD0Ev, .Ltmp438-_ZN2pp9MouseLockD0Ev
.Ltmp439:
	.cfi_endproc
.Leh_func_end45:
	.section	.gcc_except_table,"a",@progbits
	.align	4
GCC_except_table45:
.Lexception45:
	.byte	255                     # @LPStart Encoding = omit
	.byte	0                       # @TType Encoding = absptr
	.byte	156                     # @TType base offset
	.zero	1
	.byte	3                       # Call site Encoding = udata4
	.byte	26                      # Call site table length
.Lset151 = .Ltmp429-.Leh_func_begin45   # >> Call Site 1 <<
	.long	.Lset151
.Lset152 = .Ltmp430-.Ltmp429            #   Call between .Ltmp429 and .Ltmp430
	.long	.Lset152
.Lset153 = .Ltmp431-.Leh_func_begin45   #     jumps to .Ltmp431
	.long	.Lset153
	.byte	0                       #   On action: cleanup
.Lset154 = .Ltmp430-.Leh_func_begin45   # >> Call Site 2 <<
	.long	.Lset154
.Lset155 = .Leh_func_end45-.Ltmp430     #   Call between .Ltmp430 and .Leh_func_end45
	.long	.Lset155
	.long	0                       #     has no landing pad
	.byte	0                       #   On action: cleanup
	.align	4

	.text
	.globl	_ZN2pp9MouseLockD2Ev
	.align	16, 0x90
	.type	_ZN2pp9MouseLockD2Ev,@function
_ZN2pp9MouseLockD2Ev:                   # @_ZN2pp9MouseLockD2Ev
.Ltmp455:
	.cfi_startproc
	.cfi_personality 0, __gxx_personality_v0
.Leh_func_begin46:
	.cfi_lsda 0, .Lexception46
# BB#0:
	pushl	%ebx
.Ltmp456:
	.cfi_def_cfa_offset 8
	pushl	%edi
.Ltmp457:
	.cfi_def_cfa_offset 12
	pushl	%esi
.Ltmp458:
	.cfi_def_cfa_offset 16
	subl	$48, %esp
.Ltmp459:
	.cfi_def_cfa_offset 64
.Ltmp460:
	.cfi_offset %esi, -16
.Ltmp461:
	.cfi_offset %edi, -12
.Ltmp462:
	.cfi_offset %ebx, -8
	movl	64(%esp), %ebx
	movl	%ebx, 44(%esp)
	movl	$_ZTVN2pp9MouseLockE+8, (%ebx)
	leal	32(%esp), %esi
	movl	%esi, (%esp)
	calll	_ZNSaIcEC1Ev
.Ltmp440:
	movl	%esi, 8(%esp)
	leal	40(%esp), %edi
	movl	%edi, (%esp)
	movl	$_ZN2pp12_GLOBAL__N_1L22kPPPMouseLockInterfaceE, 4(%esp)
	calll	_ZNSsC1EPKcRKSaIcE
.Ltmp441:
# BB#1:
.Ltmp442:
	movl	%ebx, 8(%esp)
	leal	4(%ebx), %eax
	movl	%edi, 4(%esp)
	movl	%eax, (%esp)
	calll	_ZN2pp8Instance23RemovePerInstanceObjectERKNS_14InstanceHandleERKSsPv
.Ltmp443:
# BB#2:
.Ltmp448:
	movl	%edi, (%esp)
	calll	_ZNSsD1Ev
.Ltmp449:
# BB#3:
	movl	%esi, (%esp)
	calll	_ZNSaIcED1Ev
	addl	$48, %esp
	popl	%esi
	popl	%edi
	popl	%ebx
	ret
.LBB46_4:
.Ltmp450:
	movl	%eax, 28(%esp)
	movl	%edx, 24(%esp)
	jmp	.LBB46_6
.LBB46_5:
.Ltmp444:
	movl	%eax, 28(%esp)
	movl	%edx, 24(%esp)
.Ltmp445:
	movl	%edi, (%esp)
	calll	_ZNSsD1Ev
.Ltmp446:
.LBB46_6:
	movl	%esi, (%esp)
	calll	_ZNSaIcED1Ev
	movl	28(%esp), %eax
	movl	%eax, (%esp)
	calll	_Unwind_Resume
.LBB46_7:
.Ltmp447:
	calll	_ZSt9terminatev
.Ltmp463:
	.size	_ZN2pp9MouseLockD2Ev, .Ltmp463-_ZN2pp9MouseLockD2Ev
.Ltmp464:
	.cfi_endproc
.Leh_func_end46:
	.section	.gcc_except_table,"a",@progbits
	.align	4
GCC_except_table46:
.Lexception46:
	.byte	255                     # @LPStart Encoding = omit
	.byte	0                       # @TType Encoding = absptr
	.byte	73                      # @TType base offset
	.byte	3                       # Call site Encoding = udata4
	.byte	65                      # Call site table length
.Lset156 = .Ltmp440-.Leh_func_begin46   # >> Call Site 1 <<
	.long	.Lset156
.Lset157 = .Ltmp441-.Ltmp440            #   Call between .Ltmp440 and .Ltmp441
	.long	.Lset157
.Lset158 = .Ltmp450-.Leh_func_begin46   #     jumps to .Ltmp450
	.long	.Lset158
	.byte	0                       #   On action: cleanup
.Lset159 = .Ltmp442-.Leh_func_begin46   # >> Call Site 2 <<
	.long	.Lset159
.Lset160 = .Ltmp443-.Ltmp442            #   Call between .Ltmp442 and .Ltmp443
	.long	.Lset160
.Lset161 = .Ltmp444-.Leh_func_begin46   #     jumps to .Ltmp444
	.long	.Lset161
	.byte	0                       #   On action: cleanup
.Lset162 = .Ltmp448-.Leh_func_begin46   # >> Call Site 3 <<
	.long	.Lset162
.Lset163 = .Ltmp449-.Ltmp448            #   Call between .Ltmp448 and .Ltmp449
	.long	.Lset163
.Lset164 = .Ltmp450-.Leh_func_begin46   #     jumps to .Ltmp450
	.long	.Lset164
	.byte	0                       #   On action: cleanup
.Lset165 = .Ltmp445-.Leh_func_begin46   # >> Call Site 4 <<
	.long	.Lset165
.Lset166 = .Ltmp446-.Ltmp445            #   Call between .Ltmp445 and .Ltmp446
	.long	.Lset166
.Lset167 = .Ltmp447-.Leh_func_begin46   #     jumps to .Ltmp447
	.long	.Lset167
	.byte	1                       #   On action: 1
.Lset168 = .Ltmp446-.Leh_func_begin46   # >> Call Site 5 <<
	.long	.Lset168
.Lset169 = .Leh_func_end46-.Ltmp446     #   Call between .Ltmp446 and .Leh_func_end46
	.long	.Lset169
	.long	0                       #     has no landing pad
	.byte	0                       #   On action: cleanup
	.byte	1                       # >> Action Record 1 <<
                                        #   Catch TypeInfo 1
	.byte	0                       #   No further actions
                                        # >> Catch TypeInfos <<
	.long	0                       # TypeInfo 1
	.align	4

	.text
	.globl	_ZN2pp9MouseLock9LockMouseERKNS_18CompletionCallbackE
	.align	16, 0x90
	.type	_ZN2pp9MouseLock9LockMouseERKNS_18CompletionCallbackE,@function
_ZN2pp9MouseLock9LockMouseERKNS_18CompletionCallbackE: # @_ZN2pp9MouseLock9LockMouseERKNS_18CompletionCallbackE
.Ltmp468:
	.cfi_startproc
# BB#0:
	pushl	%edi
.Ltmp469:
	.cfi_def_cfa_offset 8
	pushl	%esi
.Ltmp470:
	.cfi_def_cfa_offset 12
	subl	$52, %esp
.Ltmp471:
	.cfi_def_cfa_offset 64
.Ltmp472:
	.cfi_offset %esi, -12
.Ltmp473:
	.cfi_offset %edi, -8
	movl	64(%esp), %eax
	movl	%eax, 44(%esp)
	movl	68(%esp), %eax
	movl	%eax, 40(%esp)
	movl	44(%esp), %esi
	calll	_ZN2pp12_GLOBAL__N_113has_interfaceI17PPB_MouseLock_1_0EEbv
	testb	%al, %al
	jne	.LBB47_2
# BB#1:
	movl	40(%esp), %eax
	movl	%eax, (%esp)
	movl	$-6, 4(%esp)
	calll	_ZNK2pp18CompletionCallback8MayForceEi
	jmp	.LBB47_3
.LBB47_2:
	calll	_ZN2pp12_GLOBAL__N_113get_interfaceI17PPB_MouseLock_1_0EEPKT_v
	movl	(%eax), %edi
	addl	$4, %esi
	movl	%esi, (%esp)
	calll	_ZNK2pp14InstanceHandle11pp_instanceEv
	movl	%eax, %esi
	movl	40(%esp), %eax
	movl	%eax, (%esp)
	calll	_ZNK2pp18CompletionCallback22pp_completion_callbackEv
	movl	8(%eax), %ecx
	movl	%ecx, 32(%esp)
	movsd	(%eax), %xmm0
	movsd	%xmm0, 24(%esp)
	movl	32(%esp), %eax
	movl	%eax, 12(%esp)
	movsd	24(%esp), %xmm0
	movsd	%xmm0, 4(%esp)
	movl	%esi, (%esp)
	calll	*%edi
.LBB47_3:
	movl	%eax, 48(%esp)
	movl	48(%esp), %eax
	addl	$52, %esp
	popl	%esi
	popl	%edi
	ret
.Ltmp474:
	.size	_ZN2pp9MouseLock9LockMouseERKNS_18CompletionCallbackE, .Ltmp474-_ZN2pp9MouseLock9LockMouseERKNS_18CompletionCallbackE
.Ltmp475:
	.cfi_endproc
.Leh_func_end47:

	.align	16, 0x90
	.type	_ZN2pp12_GLOBAL__N_113has_interfaceI17PPB_MouseLock_1_0EEbv,@function
_ZN2pp12_GLOBAL__N_113has_interfaceI17PPB_MouseLock_1_0EEbv: # @_ZN2pp12_GLOBAL__N_113has_interfaceI17PPB_MouseLock_1_0EEbv
.Ltmp477:
	.cfi_startproc
# BB#0:
	subl	$12, %esp
.Ltmp478:
	.cfi_def_cfa_offset 16
	calll	_ZN2pp12_GLOBAL__N_113get_interfaceI17PPB_MouseLock_1_0EEPKT_v
	testl	%eax, %eax
	setne	%al
	movzbl	%al, %eax
	addl	$12, %esp
	ret
.Ltmp479:
	.size	_ZN2pp12_GLOBAL__N_113has_interfaceI17PPB_MouseLock_1_0EEbv, .Ltmp479-_ZN2pp12_GLOBAL__N_113has_interfaceI17PPB_MouseLock_1_0EEbv
.Ltmp480:
	.cfi_endproc
.Leh_func_end48:

	.section	.text._ZNK2pp18CompletionCallback8MayForceEi,"axG",@progbits,_ZNK2pp18CompletionCallback8MayForceEi,comdat
	.weak	_ZNK2pp18CompletionCallback8MayForceEi
	.align	16, 0x90
	.type	_ZNK2pp18CompletionCallback8MayForceEi,@function
_ZNK2pp18CompletionCallback8MayForceEi: # @_ZNK2pp18CompletionCallback8MayForceEi
.Ltmp483:
	.cfi_startproc
# BB#0:
	pushl	%esi
.Ltmp484:
	.cfi_def_cfa_offset 8
	subl	$40, %esp
.Ltmp485:
	.cfi_def_cfa_offset 48
.Ltmp486:
	.cfi_offset %esi, -8
	movl	48(%esp), %eax
	movl	%eax, 32(%esp)
	movl	52(%esp), %eax
	movl	%eax, 28(%esp)
	cmpl	$-1, %eax
	je	.LBB49_2
# BB#1:
	movl	32(%esp), %esi
	movl	%esi, (%esp)
	calll	_ZNK2pp18CompletionCallback10IsOptionalEv
	cmpb	$1, %al
	jne	.LBB49_3
.LBB49_2:
	movl	28(%esp), %eax
	movl	%eax, 36(%esp)
	jmp	.LBB49_4
.LBB49_3:
	calll	_ZN2pp6Module3GetEv
	movl	%eax, (%esp)
	calll	_ZN2pp6Module4coreEv
	movl	28(%esp), %ecx
	movl	%ecx, 12(%esp)
	movl	%esi, 8(%esp)
	movl	%eax, (%esp)
	movl	$0, 4(%esp)
	calll	_ZN2pp4Core16CallOnMainThreadEiRKNS_18CompletionCallbackEi
	movl	$-1, 36(%esp)
.LBB49_4:
	movl	36(%esp), %eax
	addl	$40, %esp
	popl	%esi
	ret
.Ltmp487:
	.size	_ZNK2pp18CompletionCallback8MayForceEi, .Ltmp487-_ZNK2pp18CompletionCallback8MayForceEi
.Ltmp488:
	.cfi_endproc
.Leh_func_end49:

	.text
	.align	16, 0x90
	.type	_ZN2pp12_GLOBAL__N_113get_interfaceI17PPB_MouseLock_1_0EEPKT_v,@function
_ZN2pp12_GLOBAL__N_113get_interfaceI17PPB_MouseLock_1_0EEPKT_v: # @_ZN2pp12_GLOBAL__N_113get_interfaceI17PPB_MouseLock_1_0EEPKT_v
.Ltmp498:
	.cfi_startproc
	.cfi_personality 0, __gxx_personality_v0
.Leh_func_begin50:
	.cfi_lsda 0, .Lexception50
# BB#0:
	pushl	%esi
.Ltmp499:
	.cfi_def_cfa_offset 8
	subl	$24, %esp
.Ltmp500:
	.cfi_def_cfa_offset 32
.Ltmp501:
	.cfi_offset %esi, -8
	movb	_ZGVZN2pp12_GLOBAL__N_113get_interfaceI17PPB_MouseLock_1_0EEPKT_vE5funcs, %al
	testb	%al, %al
	jne	.LBB50_6
# BB#1:
	movl	$_ZGVZN2pp12_GLOBAL__N_113get_interfaceI17PPB_MouseLock_1_0EEPKT_vE5funcs, (%esp)
	calll	__cxa_guard_acquire
	testl	%eax, %eax
	je	.LBB50_6
# BB#2:
.Ltmp489:
	calll	_ZN2pp6Module3GetEv
	movl	%eax, %esi
.Ltmp490:
# BB#3:
.Ltmp491:
	calll	_ZN2pp12_GLOBAL__N_114interface_nameI17PPB_MouseLock_1_0EEPKcv
.Ltmp492:
# BB#4:
.Ltmp493:
	movl	%eax, 4(%esp)
	movl	%esi, (%esp)
	calll	_ZN2pp6Module19GetBrowserInterfaceEPKc
.Ltmp494:
# BB#5:
	movl	%eax, _ZZN2pp12_GLOBAL__N_113get_interfaceI17PPB_MouseLock_1_0EEPKT_vE5funcs
	movl	$_ZGVZN2pp12_GLOBAL__N_113get_interfaceI17PPB_MouseLock_1_0EEPKT_vE5funcs, (%esp)
	calll	__cxa_guard_release
.LBB50_6:
	movl	_ZZN2pp12_GLOBAL__N_113get_interfaceI17PPB_MouseLock_1_0EEPKT_vE5funcs, %eax
	addl	$24, %esp
	popl	%esi
	ret
.LBB50_7:
.Ltmp495:
	movl	%eax, 20(%esp)
	movl	%edx, 16(%esp)
	movl	$_ZGVZN2pp12_GLOBAL__N_113get_interfaceI17PPB_MouseLock_1_0EEPKT_vE5funcs, (%esp)
	calll	__cxa_guard_abort
	movl	20(%esp), %eax
	movl	%eax, (%esp)
	calll	_Unwind_Resume
.Ltmp502:
	.size	_ZN2pp12_GLOBAL__N_113get_interfaceI17PPB_MouseLock_1_0EEPKT_v, .Ltmp502-_ZN2pp12_GLOBAL__N_113get_interfaceI17PPB_MouseLock_1_0EEPKT_v
.Ltmp503:
	.cfi_endproc
.Leh_func_end50:
	.section	.gcc_except_table,"a",@progbits
	.align	4
GCC_except_table50:
.Lexception50:
	.byte	255                     # @LPStart Encoding = omit
	.byte	0                       # @TType Encoding = absptr
	.byte	41                      # @TType base offset
	.byte	3                       # Call site Encoding = udata4
	.byte	39                      # Call site table length
.Lset170 = .Leh_func_begin50-.Leh_func_begin50 # >> Call Site 1 <<
	.long	.Lset170
.Lset171 = .Ltmp489-.Leh_func_begin50   #   Call between .Leh_func_begin50 and .Ltmp489
	.long	.Lset171
	.long	0                       #     has no landing pad
	.byte	0                       #   On action: cleanup
.Lset172 = .Ltmp489-.Leh_func_begin50   # >> Call Site 2 <<
	.long	.Lset172
.Lset173 = .Ltmp494-.Ltmp489            #   Call between .Ltmp489 and .Ltmp494
	.long	.Lset173
.Lset174 = .Ltmp495-.Leh_func_begin50   #     jumps to .Ltmp495
	.long	.Lset174
	.byte	0                       #   On action: cleanup
.Lset175 = .Ltmp494-.Leh_func_begin50   # >> Call Site 3 <<
	.long	.Lset175
.Lset176 = .Leh_func_end50-.Ltmp494     #   Call between .Ltmp494 and .Leh_func_end50
	.long	.Lset176
	.long	0                       #     has no landing pad
	.byte	0                       #   On action: cleanup
	.align	4

	.section	.text._ZNK2pp18CompletionCallback22pp_completion_callbackEv,"axG",@progbits,_ZNK2pp18CompletionCallback22pp_completion_callbackEv,comdat
	.weak	_ZNK2pp18CompletionCallback22pp_completion_callbackEv
	.align	16, 0x90
	.type	_ZNK2pp18CompletionCallback22pp_completion_callbackEv,@function
_ZNK2pp18CompletionCallback22pp_completion_callbackEv: # @_ZNK2pp18CompletionCallback22pp_completion_callbackEv
# BB#0:
	pushl	%eax
	movl	8(%esp), %eax
	movl	%eax, (%esp)
	popl	%edx
	ret
.Ltmp504:
	.size	_ZNK2pp18CompletionCallback22pp_completion_callbackEv, .Ltmp504-_ZNK2pp18CompletionCallback22pp_completion_callbackEv

	.text
	.globl	_ZN2pp9MouseLock11UnlockMouseEv
	.align	16, 0x90
	.type	_ZN2pp9MouseLock11UnlockMouseEv,@function
_ZN2pp9MouseLock11UnlockMouseEv:        # @_ZN2pp9MouseLock11UnlockMouseEv
.Ltmp508:
	.cfi_startproc
# BB#0:
	pushl	%edi
.Ltmp509:
	.cfi_def_cfa_offset 8
	pushl	%esi
.Ltmp510:
	.cfi_def_cfa_offset 12
	subl	$20, %esp
.Ltmp511:
	.cfi_def_cfa_offset 32
.Ltmp512:
	.cfi_offset %esi, -12
.Ltmp513:
	.cfi_offset %edi, -8
	movl	32(%esp), %esi
	movl	%esi, 16(%esp)
	calll	_ZN2pp12_GLOBAL__N_113has_interfaceI17PPB_MouseLock_1_0EEbv
	testb	%al, %al
	je	.LBB52_2
# BB#1:
	calll	_ZN2pp12_GLOBAL__N_113get_interfaceI17PPB_MouseLock_1_0EEPKT_v
	movl	4(%eax), %edi
	addl	$4, %esi
	movl	%esi, (%esp)
	calll	_ZNK2pp14InstanceHandle11pp_instanceEv
	movl	%eax, (%esp)
	calll	*%edi
.LBB52_2:
	addl	$20, %esp
	popl	%esi
	popl	%edi
	ret
.Ltmp514:
	.size	_ZN2pp9MouseLock11UnlockMouseEv, .Ltmp514-_ZN2pp9MouseLock11UnlockMouseEv
.Ltmp515:
	.cfi_endproc
.Leh_func_end52:

	.align	16, 0x90
	.type	_ZN2pp12_GLOBAL__N_114interface_nameI17PPB_MouseLock_1_0EEPKcv,@function
_ZN2pp12_GLOBAL__N_114interface_nameI17PPB_MouseLock_1_0EEPKcv: # @_ZN2pp12_GLOBAL__N_114interface_nameI17PPB_MouseLock_1_0EEPKcv
# BB#0:
	movl	$.L.str2, %eax
	ret
.Ltmp516:
	.size	_ZN2pp12_GLOBAL__N_114interface_nameI17PPB_MouseLock_1_0EEPKcv, .Ltmp516-_ZN2pp12_GLOBAL__N_114interface_nameI17PPB_MouseLock_1_0EEPKcv

	.section	.text._ZNK2pp18CompletionCallback10IsOptionalEv,"axG",@progbits,_ZNK2pp18CompletionCallback10IsOptionalEv,comdat
	.weak	_ZNK2pp18CompletionCallback10IsOptionalEv
	.align	16, 0x90
	.type	_ZNK2pp18CompletionCallback10IsOptionalEv,@function
_ZNK2pp18CompletionCallback10IsOptionalEv: # @_ZNK2pp18CompletionCallback10IsOptionalEv
# BB#0:
	pushl	%eax
	movl	8(%esp), %ecx
	movl	%ecx, (%esp)
	movb	$1, %al
	cmpl	$0, (%ecx)
	je	.LBB54_2
# BB#1:
	movb	8(%ecx), %al
	andb	$1, %al
.LBB54_2:
	movzbl	%al, %eax
	popl	%edx
	ret
.Ltmp517:
	.size	_ZNK2pp18CompletionCallback10IsOptionalEv, .Ltmp517-_ZNK2pp18CompletionCallback10IsOptionalEv

	.section	.text._ZN2pp6Module4coreEv,"axG",@progbits,_ZN2pp6Module4coreEv,comdat
	.weak	_ZN2pp6Module4coreEv
	.align	16, 0x90
	.type	_ZN2pp6Module4coreEv,@function
_ZN2pp6Module4coreEv:                   # @_ZN2pp6Module4coreEv
# BB#0:
	pushl	%eax
	movl	8(%esp), %eax
	movl	%eax, (%esp)
	movl	36(%eax), %eax
	popl	%edx
	ret
.Ltmp518:
	.size	_ZN2pp6Module4coreEv, .Ltmp518-_ZN2pp6Module4coreEv

	.text
	.align	16, 0x90
	.type	_ZN2pp12_GLOBAL__N_113MouseLockLostEi,@function
_ZN2pp12_GLOBAL__N_113MouseLockLostEi:  # @_ZN2pp12_GLOBAL__N_113MouseLockLostEi
.Ltmp534:
	.cfi_startproc
	.cfi_personality 0, __gxx_personality_v0
.Leh_func_begin56:
	.cfi_lsda 0, .Lexception56
# BB#0:
	pushl	%ebx
.Ltmp535:
	.cfi_def_cfa_offset 8
	pushl	%edi
.Ltmp536:
	.cfi_def_cfa_offset 12
	pushl	%esi
.Ltmp537:
	.cfi_def_cfa_offset 16
	subl	$48, %esp
.Ltmp538:
	.cfi_def_cfa_offset 64
.Ltmp539:
	.cfi_offset %esi, -16
.Ltmp540:
	.cfi_offset %edi, -12
.Ltmp541:
	.cfi_offset %ebx, -8
	movl	64(%esp), %esi
	movl	%esi, 44(%esp)
	leal	24(%esp), %edi
	movl	%edi, (%esp)
	calll	_ZNSaIcEC1Ev
.Ltmp519:
	movl	%edi, 8(%esp)
	leal	32(%esp), %ebx
	movl	%ebx, (%esp)
	movl	$_ZN2pp12_GLOBAL__N_1L22kPPPMouseLockInterfaceE, 4(%esp)
	calll	_ZNSsC1EPKcRKSaIcE
.Ltmp520:
# BB#1:
.Ltmp521:
	movl	%ebx, 4(%esp)
	movl	%esi, (%esp)
	calll	_ZN2pp8Instance20GetPerInstanceObjectEiRKSs
	movl	%eax, %esi
.Ltmp522:
# BB#2:
.Ltmp527:
	movl	%ebx, (%esp)
	calll	_ZNSsD1Ev
.Ltmp528:
# BB#3:
	movl	%edi, (%esp)
	calll	_ZNSaIcED1Ev
	movl	%esi, 40(%esp)
	testl	%esi, %esi
	je	.LBB56_5
# BB#4:
	movl	40(%esp), %ecx
	movl	(%ecx), %eax
	movl	%ecx, (%esp)
	calll	*8(%eax)
.LBB56_5:
	addl	$48, %esp
	popl	%esi
	popl	%edi
	popl	%ebx
	ret
.LBB56_6:
.Ltmp529:
	movl	%eax, 20(%esp)
	movl	%edx, 16(%esp)
	jmp	.LBB56_8
.LBB56_7:
.Ltmp523:
	movl	%eax, 20(%esp)
	movl	%edx, 16(%esp)
.Ltmp524:
	movl	%ebx, (%esp)
	calll	_ZNSsD1Ev
.Ltmp525:
.LBB56_8:
	movl	%edi, (%esp)
	calll	_ZNSaIcED1Ev
	movl	20(%esp), %eax
	movl	%eax, (%esp)
	calll	_Unwind_Resume
.LBB56_9:
.Ltmp526:
	calll	_ZSt9terminatev
.Ltmp542:
	.size	_ZN2pp12_GLOBAL__N_113MouseLockLostEi, .Ltmp542-_ZN2pp12_GLOBAL__N_113MouseLockLostEi
.Ltmp543:
	.cfi_endproc
.Leh_func_end56:
	.section	.gcc_except_table,"a",@progbits
	.align	4
GCC_except_table56:
.Lexception56:
	.byte	255                     # @LPStart Encoding = omit
	.byte	0                       # @TType Encoding = absptr
	.byte	214                     # @TType base offset
	.zero	2,128
	.zero	1
	.byte	3                       # Call site Encoding = udata4
	.byte	78                      # Call site table length
.Lset177 = .Ltmp519-.Leh_func_begin56   # >> Call Site 1 <<
	.long	.Lset177
.Lset178 = .Ltmp520-.Ltmp519            #   Call between .Ltmp519 and .Ltmp520
	.long	.Lset178
.Lset179 = .Ltmp529-.Leh_func_begin56   #     jumps to .Ltmp529
	.long	.Lset179
	.byte	0                       #   On action: cleanup
.Lset180 = .Ltmp521-.Leh_func_begin56   # >> Call Site 2 <<
	.long	.Lset180
.Lset181 = .Ltmp522-.Ltmp521            #   Call between .Ltmp521 and .Ltmp522
	.long	.Lset181
.Lset182 = .Ltmp523-.Leh_func_begin56   #     jumps to .Ltmp523
	.long	.Lset182
	.byte	0                       #   On action: cleanup
.Lset183 = .Ltmp527-.Leh_func_begin56   # >> Call Site 3 <<
	.long	.Lset183
.Lset184 = .Ltmp528-.Ltmp527            #   Call between .Ltmp527 and .Ltmp528
	.long	.Lset184
.Lset185 = .Ltmp529-.Leh_func_begin56   #     jumps to .Ltmp529
	.long	.Lset185
	.byte	0                       #   On action: cleanup
.Lset186 = .Ltmp528-.Leh_func_begin56   # >> Call Site 4 <<
	.long	.Lset186
.Lset187 = .Ltmp524-.Ltmp528            #   Call between .Ltmp528 and .Ltmp524
	.long	.Lset187
	.long	0                       #     has no landing pad
	.byte	0                       #   On action: cleanup
.Lset188 = .Ltmp524-.Leh_func_begin56   # >> Call Site 5 <<
	.long	.Lset188
.Lset189 = .Ltmp525-.Ltmp524            #   Call between .Ltmp524 and .Ltmp525
	.long	.Lset189
.Lset190 = .Ltmp526-.Leh_func_begin56   #     jumps to .Ltmp526
	.long	.Lset190
	.byte	1                       #   On action: 1
.Lset191 = .Ltmp525-.Leh_func_begin56   # >> Call Site 6 <<
	.long	.Lset191
.Lset192 = .Leh_func_end56-.Ltmp525     #   Call between .Ltmp525 and .Leh_func_end56
	.long	.Lset192
	.long	0                       #     has no landing pad
	.byte	0                       #   On action: cleanup
	.byte	1                       # >> Action Record 1 <<
                                        #   Catch TypeInfo 1
	.byte	0                       #   No further actions
                                        # >> Catch TypeInfos <<
	.long	0                       # TypeInfo 1
	.align	4

	.text
	.globl	_ZN2pp8ResourceC2Ev
	.align	16, 0x90
	.type	_ZN2pp8ResourceC2Ev,@function
_ZN2pp8ResourceC2Ev:                    # @_ZN2pp8ResourceC2Ev
# BB#0:
	pushl	%eax
	movl	8(%esp), %eax
	movl	%eax, (%esp)
	movl	$_ZTVN2pp8ResourceE+8, (%eax)
	movl	$0, 4(%eax)
	popl	%eax
	ret
.Ltmp544:
	.size	_ZN2pp8ResourceC2Ev, .Ltmp544-_ZN2pp8ResourceC2Ev

	.globl	_ZN2pp8ResourceC2ERKS0_
	.align	16, 0x90
	.type	_ZN2pp8ResourceC2ERKS0_,@function
_ZN2pp8ResourceC2ERKS0_:                # @_ZN2pp8ResourceC2ERKS0_
.Ltmp547:
	.cfi_startproc
# BB#0:
	pushl	%esi
.Ltmp548:
	.cfi_def_cfa_offset 8
	subl	$24, %esp
.Ltmp549:
	.cfi_def_cfa_offset 32
.Ltmp550:
	.cfi_offset %esi, -8
	movl	32(%esp), %eax
	movl	%eax, 20(%esp)
	movl	36(%esp), %eax
	movl	%eax, 16(%esp)
	movl	20(%esp), %esi
	movl	$_ZTVN2pp8ResourceE+8, (%esi)
	movl	16(%esp), %eax
	movl	4(%eax), %eax
	movl	%eax, 4(%esi)
	movl	%esi, (%esp)
	calll	_ZNK2pp8Resource7is_nullEv
	testb	%al, %al
	jne	.LBB58_2
# BB#1:
	calll	_ZN2pp6Module3GetEv
	movl	%eax, (%esp)
	calll	_ZN2pp6Module4coreEv
	movl	4(%esi), %ecx
	movl	%ecx, 4(%esp)
	movl	%eax, (%esp)
	calll	_ZN2pp4Core14AddRefResourceEi
.LBB58_2:
	addl	$24, %esp
	popl	%esi
	ret
.Ltmp551:
	.size	_ZN2pp8ResourceC2ERKS0_, .Ltmp551-_ZN2pp8ResourceC2ERKS0_
.Ltmp552:
	.cfi_endproc
.Leh_func_end58:

	.section	.text._ZNK2pp8Resource7is_nullEv,"axG",@progbits,_ZNK2pp8Resource7is_nullEv,comdat
	.weak	_ZNK2pp8Resource7is_nullEv
	.align	16, 0x90
	.type	_ZNK2pp8Resource7is_nullEv,@function
_ZNK2pp8Resource7is_nullEv:             # @_ZNK2pp8Resource7is_nullEv
# BB#0:
	pushl	%eax
	movl	8(%esp), %eax
	movl	%eax, (%esp)
	cmpl	$0, 4(%eax)
	sete	%al
	movzbl	%al, %eax
	popl	%edx
	ret
.Ltmp553:
	.size	_ZNK2pp8Resource7is_nullEv, .Ltmp553-_ZNK2pp8Resource7is_nullEv

	.section	.text._ZN2pp4Core14AddRefResourceEi,"axG",@progbits,_ZN2pp4Core14AddRefResourceEi,comdat
	.weak	_ZN2pp4Core14AddRefResourceEi
	.align	16, 0x90
	.type	_ZN2pp4Core14AddRefResourceEi,@function
_ZN2pp4Core14AddRefResourceEi:          # @_ZN2pp4Core14AddRefResourceEi
.Ltmp555:
	.cfi_startproc
# BB#0:
	subl	$12, %esp
.Ltmp556:
	.cfi_def_cfa_offset 16
	movl	16(%esp), %eax
	movl	%eax, 8(%esp)
	movl	20(%esp), %eax
	movl	%eax, 4(%esp)
	movl	8(%esp), %ecx
	movl	(%ecx), %ecx
	movl	%eax, (%esp)
	calll	*(%ecx)
	addl	$12, %esp
	ret
.Ltmp557:
	.size	_ZN2pp4Core14AddRefResourceEi, .Ltmp557-_ZN2pp4Core14AddRefResourceEi
.Ltmp558:
	.cfi_endproc
.Leh_func_end60:

	.text
	.globl	_ZN2pp8ResourceD0Ev
	.align	16, 0x90
	.type	_ZN2pp8ResourceD0Ev,@function
_ZN2pp8ResourceD0Ev:                    # @_ZN2pp8ResourceD0Ev
.Ltmp564:
	.cfi_startproc
	.cfi_personality 0, __gxx_personality_v0
.Leh_func_begin61:
	.cfi_lsda 0, .Lexception61
# BB#0:
	pushl	%esi
.Ltmp565:
	.cfi_def_cfa_offset 8
	subl	$24, %esp
.Ltmp566:
	.cfi_def_cfa_offset 32
.Ltmp567:
	.cfi_offset %esi, -8
	movl	32(%esp), %esi
	movl	%esi, 20(%esp)
.Ltmp559:
	movl	%esi, (%esp)
	calll	_ZN2pp8ResourceD1Ev
.Ltmp560:
# BB#1:
	movl	%esi, (%esp)
	calll	_ZdlPv
	addl	$24, %esp
	popl	%esi
	ret
.LBB61_2:
.Ltmp561:
	movl	%eax, 16(%esp)
	movl	%edx, 12(%esp)
	movl	%esi, (%esp)
	calll	_ZdlPv
	movl	16(%esp), %eax
	movl	%eax, (%esp)
	calll	_Unwind_Resume
.Ltmp568:
	.size	_ZN2pp8ResourceD0Ev, .Ltmp568-_ZN2pp8ResourceD0Ev
.Ltmp569:
	.cfi_endproc
.Leh_func_end61:
	.section	.gcc_except_table,"a",@progbits
	.align	4
GCC_except_table61:
.Lexception61:
	.byte	255                     # @LPStart Encoding = omit
	.byte	0                       # @TType Encoding = absptr
	.byte	156                     # @TType base offset
	.zero	1
	.byte	3                       # Call site Encoding = udata4
	.byte	26                      # Call site table length
.Lset193 = .Ltmp559-.Leh_func_begin61   # >> Call Site 1 <<
	.long	.Lset193
.Lset194 = .Ltmp560-.Ltmp559            #   Call between .Ltmp559 and .Ltmp560
	.long	.Lset194
.Lset195 = .Ltmp561-.Leh_func_begin61   #     jumps to .Ltmp561
	.long	.Lset195
	.byte	0                       #   On action: cleanup
.Lset196 = .Ltmp560-.Leh_func_begin61   # >> Call Site 2 <<
	.long	.Lset196
.Lset197 = .Leh_func_end61-.Ltmp560     #   Call between .Ltmp560 and .Leh_func_end61
	.long	.Lset197
	.long	0                       #     has no landing pad
	.byte	0                       #   On action: cleanup
	.align	4

	.text
	.globl	_ZN2pp8ResourceD2Ev
	.align	16, 0x90
	.type	_ZN2pp8ResourceD2Ev,@function
_ZN2pp8ResourceD2Ev:                    # @_ZN2pp8ResourceD2Ev
.Ltmp572:
	.cfi_startproc
# BB#0:
	pushl	%esi
.Ltmp573:
	.cfi_def_cfa_offset 8
	subl	$24, %esp
.Ltmp574:
	.cfi_def_cfa_offset 32
.Ltmp575:
	.cfi_offset %esi, -8
	movl	32(%esp), %esi
	movl	%esi, 20(%esp)
	movl	$_ZTVN2pp8ResourceE+8, (%esi)
	movl	%esi, (%esp)
	calll	_ZNK2pp8Resource7is_nullEv
	testb	%al, %al
	jne	.LBB62_2
# BB#1:
	calll	_ZN2pp6Module3GetEv
	movl	%eax, (%esp)
	calll	_ZN2pp6Module4coreEv
	movl	4(%esi), %ecx
	movl	%ecx, 4(%esp)
	movl	%eax, (%esp)
	calll	_ZN2pp4Core15ReleaseResourceEi
.LBB62_2:
	addl	$24, %esp
	popl	%esi
	ret
.Ltmp576:
	.size	_ZN2pp8ResourceD2Ev, .Ltmp576-_ZN2pp8ResourceD2Ev
.Ltmp577:
	.cfi_endproc
.Leh_func_end62:

	.section	.text._ZN2pp4Core15ReleaseResourceEi,"axG",@progbits,_ZN2pp4Core15ReleaseResourceEi,comdat
	.weak	_ZN2pp4Core15ReleaseResourceEi
	.align	16, 0x90
	.type	_ZN2pp4Core15ReleaseResourceEi,@function
_ZN2pp4Core15ReleaseResourceEi:         # @_ZN2pp4Core15ReleaseResourceEi
.Ltmp579:
	.cfi_startproc
# BB#0:
	subl	$12, %esp
.Ltmp580:
	.cfi_def_cfa_offset 16
	movl	16(%esp), %eax
	movl	%eax, 8(%esp)
	movl	20(%esp), %eax
	movl	%eax, 4(%esp)
	movl	8(%esp), %ecx
	movl	(%ecx), %ecx
	movl	%eax, (%esp)
	calll	*4(%ecx)
	addl	$12, %esp
	ret
.Ltmp581:
	.size	_ZN2pp4Core15ReleaseResourceEi, .Ltmp581-_ZN2pp4Core15ReleaseResourceEi
.Ltmp582:
	.cfi_endproc
.Leh_func_end63:

	.text
	.globl	_ZN2pp8ResourceaSERKS0_
	.align	16, 0x90
	.type	_ZN2pp8ResourceaSERKS0_,@function
_ZN2pp8ResourceaSERKS0_:                # @_ZN2pp8ResourceaSERKS0_
.Ltmp585:
	.cfi_startproc
# BB#0:
	pushl	%esi
.Ltmp586:
	.cfi_def_cfa_offset 8
	subl	$24, %esp
.Ltmp587:
	.cfi_def_cfa_offset 32
.Ltmp588:
	.cfi_offset %esi, -8
	movl	32(%esp), %eax
	movl	%eax, 20(%esp)
	movl	36(%esp), %eax
	movl	%eax, 16(%esp)
	movl	20(%esp), %esi
	movl	%eax, (%esp)
	calll	_ZNK2pp8Resource7is_nullEv
	testb	%al, %al
	jne	.LBB64_2
# BB#1:
	calll	_ZN2pp6Module3GetEv
	movl	%eax, (%esp)
	calll	_ZN2pp6Module4coreEv
	movl	16(%esp), %ecx
	movl	4(%ecx), %ecx
	movl	%ecx, 4(%esp)
	movl	%eax, (%esp)
	calll	_ZN2pp4Core14AddRefResourceEi
.LBB64_2:
	movl	%esi, (%esp)
	calll	_ZNK2pp8Resource7is_nullEv
	testb	%al, %al
	jne	.LBB64_4
# BB#3:
	calll	_ZN2pp6Module3GetEv
	movl	%eax, (%esp)
	calll	_ZN2pp6Module4coreEv
	movl	4(%esi), %ecx
	movl	%ecx, 4(%esp)
	movl	%eax, (%esp)
	calll	_ZN2pp4Core15ReleaseResourceEi
.LBB64_4:
	movl	16(%esp), %eax
	movl	4(%eax), %eax
	movl	%eax, 4(%esi)
	movl	%esi, %eax
	addl	$24, %esp
	popl	%esi
	ret
.Ltmp589:
	.size	_ZN2pp8ResourceaSERKS0_, .Ltmp589-_ZN2pp8ResourceaSERKS0_
.Ltmp590:
	.cfi_endproc
.Leh_func_end64:

	.globl	_ZN2pp8Resource6detachEv
	.align	16, 0x90
	.type	_ZN2pp8Resource6detachEv,@function
_ZN2pp8Resource6detachEv:               # @_ZN2pp8Resource6detachEv
# BB#0:
	subl	$8, %esp
	movl	12(%esp), %eax
	movl	%eax, 4(%esp)
	movl	4(%eax), %ecx
	movl	%ecx, (%esp)
	movl	$0, 4(%eax)
	movl	(%esp), %eax
	addl	$8, %esp
	ret
.Ltmp591:
	.size	_ZN2pp8Resource6detachEv, .Ltmp591-_ZN2pp8Resource6detachEv

	.globl	_ZN2pp8ResourceC2Ei
	.align	16, 0x90
	.type	_ZN2pp8ResourceC2Ei,@function
_ZN2pp8ResourceC2Ei:                    # @_ZN2pp8ResourceC2Ei
.Ltmp594:
	.cfi_startproc
# BB#0:
	pushl	%esi
.Ltmp595:
	.cfi_def_cfa_offset 8
	subl	$24, %esp
.Ltmp596:
	.cfi_def_cfa_offset 32
.Ltmp597:
	.cfi_offset %esi, -8
	movl	32(%esp), %eax
	movl	%eax, 20(%esp)
	movl	36(%esp), %eax
	movl	%eax, 16(%esp)
	movl	20(%esp), %esi
	movl	$_ZTVN2pp8ResourceE+8, (%esi)
	movl	16(%esp), %eax
	movl	%eax, 4(%esi)
	movl	%esi, (%esp)
	calll	_ZNK2pp8Resource7is_nullEv
	testb	%al, %al
	jne	.LBB66_2
# BB#1:
	calll	_ZN2pp6Module3GetEv
	movl	%eax, (%esp)
	calll	_ZN2pp6Module4coreEv
	movl	4(%esi), %ecx
	movl	%ecx, 4(%esp)
	movl	%eax, (%esp)
	calll	_ZN2pp4Core14AddRefResourceEi
.LBB66_2:
	addl	$24, %esp
	popl	%esi
	ret
.Ltmp598:
	.size	_ZN2pp8ResourceC2Ei, .Ltmp598-_ZN2pp8ResourceC2Ei
.Ltmp599:
	.cfi_endproc
.Leh_func_end66:

	.globl	_ZN2pp8ResourceC2ENS_7PassRefEi
	.align	16, 0x90
	.type	_ZN2pp8ResourceC2ENS_7PassRefEi,@function
_ZN2pp8ResourceC2ENS_7PassRefEi:        # @_ZN2pp8ResourceC2ENS_7PassRefEi
# BB#0:
	subl	$12, %esp
	movl	16(%esp), %eax
	movl	%eax, 8(%esp)
	movl	20(%esp), %eax
	movl	%eax, 4(%esp)
	movl	24(%esp), %eax
	movl	%eax, (%esp)
	movl	8(%esp), %eax
	movl	$_ZTVN2pp8ResourceE+8, (%eax)
	movl	(%esp), %ecx
	movl	%ecx, 4(%eax)
	addl	$12, %esp
	ret
.Ltmp600:
	.size	_ZN2pp8ResourceC2ENS_7PassRefEi, .Ltmp600-_ZN2pp8ResourceC2ENS_7PassRefEi

	.globl	_ZN2pp8Resource22PassRefFromConstructorEi
	.align	16, 0x90
	.type	_ZN2pp8Resource22PassRefFromConstructorEi,@function
_ZN2pp8Resource22PassRefFromConstructorEi: # @_ZN2pp8Resource22PassRefFromConstructorEi
# BB#0:
	subl	$28, %esp
	movl	32(%esp), %eax
	movl	%eax, 24(%esp)
	movl	36(%esp), %eax
	movl	%eax, 20(%esp)
	movl	24(%esp), %eax
	cmpl	$0, 4(%eax)
	jne	.LBB68_2
# BB#1:
	movl	20(%esp), %ecx
	movl	%ecx, 4(%eax)
	addl	$28, %esp
	ret
.LBB68_2:
	movl	$.L__PRETTY_FUNCTION__._ZN2pp8Resource22PassRefFromConstructorEi, 12(%esp)
	movl	$51, 8(%esp)
	movl	$.L.str14, 4(%esp)
	movl	$.L.str3, (%esp)
	calll	__assert_fail
.Ltmp601:
	.size	_ZN2pp8Resource22PassRefFromConstructorEi, .Ltmp601-_ZN2pp8Resource22PassRefFromConstructorEi

	.globl	_ZN2pp9WebSocketC2ERKNS_14InstanceHandleE
	.align	16, 0x90
	.type	_ZN2pp9WebSocketC2ERKNS_14InstanceHandleE,@function
_ZN2pp9WebSocketC2ERKNS_14InstanceHandleE: # @_ZN2pp9WebSocketC2ERKNS_14InstanceHandleE
.Ltmp619:
	.cfi_startproc
	.cfi_personality 0, __gxx_personality_v0
.Leh_func_begin69:
	.cfi_lsda 0, .Lexception69
# BB#0:
	pushl	%edi
.Ltmp620:
	.cfi_def_cfa_offset 8
	pushl	%esi
.Ltmp621:
	.cfi_def_cfa_offset 12
	subl	$36, %esp
.Ltmp622:
	.cfi_def_cfa_offset 48
.Ltmp623:
	.cfi_offset %esi, -12
.Ltmp624:
	.cfi_offset %edi, -8
	movl	48(%esp), %eax
	movl	%eax, 32(%esp)
	movl	52(%esp), %eax
	movl	%eax, 28(%esp)
	movl	32(%esp), %esi
	movl	%esi, (%esp)
	calll	_ZN2pp8ResourceC2Ev
	movl	$_ZTVN2pp9WebSocketE+8, (%esi)
.Ltmp602:
	calll	_ZN2pp12_GLOBAL__N_113has_interfaceI17PPB_WebSocket_1_0EEbv
.Ltmp603:
# BB#1:
	testb	%al, %al
	je	.LBB69_6
# BB#2:
.Ltmp604:
	calll	_ZN2pp12_GLOBAL__N_113get_interfaceI17PPB_WebSocket_1_0EEPKT_v
.Ltmp605:
# BB#3:
	movl	(%eax), %edi
	movl	28(%esp), %eax
.Ltmp606:
	movl	%eax, (%esp)
	calll	_ZNK2pp14InstanceHandle11pp_instanceEv
.Ltmp607:
# BB#4:
.Ltmp608:
	movl	%eax, (%esp)
	calll	*%edi
.Ltmp609:
# BB#5:
.Ltmp610:
	movl	%eax, 4(%esp)
	movl	%esi, (%esp)
	calll	_ZN2pp8Resource22PassRefFromConstructorEi
.Ltmp611:
.LBB69_6:
	addl	$36, %esp
	popl	%esi
	popl	%edi
	ret
.LBB69_7:
.Ltmp612:
	movl	%eax, 24(%esp)
	movl	%edx, 20(%esp)
.Ltmp613:
	movl	%esi, (%esp)
	calll	_ZN2pp8ResourceD2Ev
.Ltmp614:
# BB#8:
	movl	24(%esp), %eax
	movl	%eax, (%esp)
	calll	_Unwind_Resume
.LBB69_9:
.Ltmp615:
	calll	_ZSt9terminatev
.Ltmp625:
	.size	_ZN2pp9WebSocketC2ERKNS_14InstanceHandleE, .Ltmp625-_ZN2pp9WebSocketC2ERKNS_14InstanceHandleE
.Ltmp626:
	.cfi_endproc
.Leh_func_end69:
	.section	.gcc_except_table,"a",@progbits
	.align	4
GCC_except_table69:
.Lexception69:
	.byte	255                     # @LPStart Encoding = omit
	.byte	0                       # @TType Encoding = absptr
	.byte	175                     # @TType base offset
	.zero	1,128
	.zero	1
	.byte	3                       # Call site Encoding = udata4
	.byte	39                      # Call site table length
.Lset198 = .Ltmp602-.Leh_func_begin69   # >> Call Site 1 <<
	.long	.Lset198
.Lset199 = .Ltmp611-.Ltmp602            #   Call between .Ltmp602 and .Ltmp611
	.long	.Lset199
.Lset200 = .Ltmp612-.Leh_func_begin69   #     jumps to .Ltmp612
	.long	.Lset200
	.byte	0                       #   On action: cleanup
.Lset201 = .Ltmp613-.Leh_func_begin69   # >> Call Site 2 <<
	.long	.Lset201
.Lset202 = .Ltmp614-.Ltmp613            #   Call between .Ltmp613 and .Ltmp614
	.long	.Lset202
.Lset203 = .Ltmp615-.Leh_func_begin69   #     jumps to .Ltmp615
	.long	.Lset203
	.byte	1                       #   On action: 1
.Lset204 = .Ltmp614-.Leh_func_begin69   # >> Call Site 3 <<
	.long	.Lset204
.Lset205 = .Leh_func_end69-.Ltmp614     #   Call between .Ltmp614 and .Leh_func_end69
	.long	.Lset205
	.long	0                       #     has no landing pad
	.byte	0                       #   On action: cleanup
	.byte	1                       # >> Action Record 1 <<
                                        #   Catch TypeInfo 1
	.byte	0                       #   No further actions
                                        # >> Catch TypeInfos <<
	.long	0                       # TypeInfo 1
	.align	4

	.text
	.align	16, 0x90
	.type	_ZN2pp12_GLOBAL__N_113has_interfaceI17PPB_WebSocket_1_0EEbv,@function
_ZN2pp12_GLOBAL__N_113has_interfaceI17PPB_WebSocket_1_0EEbv: # @_ZN2pp12_GLOBAL__N_113has_interfaceI17PPB_WebSocket_1_0EEbv
.Ltmp628:
	.cfi_startproc
# BB#0:
	subl	$12, %esp
.Ltmp629:
	.cfi_def_cfa_offset 16
	calll	_ZN2pp12_GLOBAL__N_113get_interfaceI17PPB_WebSocket_1_0EEPKT_v
	testl	%eax, %eax
	setne	%al
	movzbl	%al, %eax
	addl	$12, %esp
	ret
.Ltmp630:
	.size	_ZN2pp12_GLOBAL__N_113has_interfaceI17PPB_WebSocket_1_0EEbv, .Ltmp630-_ZN2pp12_GLOBAL__N_113has_interfaceI17PPB_WebSocket_1_0EEbv
.Ltmp631:
	.cfi_endproc
.Leh_func_end70:

	.align	16, 0x90
	.type	_ZN2pp12_GLOBAL__N_113get_interfaceI17PPB_WebSocket_1_0EEPKT_v,@function
_ZN2pp12_GLOBAL__N_113get_interfaceI17PPB_WebSocket_1_0EEPKT_v: # @_ZN2pp12_GLOBAL__N_113get_interfaceI17PPB_WebSocket_1_0EEPKT_v
.Ltmp641:
	.cfi_startproc
	.cfi_personality 0, __gxx_personality_v0
.Leh_func_begin71:
	.cfi_lsda 0, .Lexception71
# BB#0:
	pushl	%esi
.Ltmp642:
	.cfi_def_cfa_offset 8
	subl	$24, %esp
.Ltmp643:
	.cfi_def_cfa_offset 32
.Ltmp644:
	.cfi_offset %esi, -8
	movb	_ZGVZN2pp12_GLOBAL__N_113get_interfaceI17PPB_WebSocket_1_0EEPKT_vE5funcs, %al
	testb	%al, %al
	jne	.LBB71_6
# BB#1:
	movl	$_ZGVZN2pp12_GLOBAL__N_113get_interfaceI17PPB_WebSocket_1_0EEPKT_vE5funcs, (%esp)
	calll	__cxa_guard_acquire
	testl	%eax, %eax
	je	.LBB71_6
# BB#2:
.Ltmp632:
	calll	_ZN2pp6Module3GetEv
	movl	%eax, %esi
.Ltmp633:
# BB#3:
.Ltmp634:
	calll	_ZN2pp12_GLOBAL__N_114interface_nameI17PPB_WebSocket_1_0EEPKcv
.Ltmp635:
# BB#4:
.Ltmp636:
	movl	%eax, 4(%esp)
	movl	%esi, (%esp)
	calll	_ZN2pp6Module19GetBrowserInterfaceEPKc
.Ltmp637:
# BB#5:
	movl	%eax, _ZZN2pp12_GLOBAL__N_113get_interfaceI17PPB_WebSocket_1_0EEPKT_vE5funcs
	movl	$_ZGVZN2pp12_GLOBAL__N_113get_interfaceI17PPB_WebSocket_1_0EEPKT_vE5funcs, (%esp)
	calll	__cxa_guard_release
.LBB71_6:
	movl	_ZZN2pp12_GLOBAL__N_113get_interfaceI17PPB_WebSocket_1_0EEPKT_vE5funcs, %eax
	addl	$24, %esp
	popl	%esi
	ret
.LBB71_7:
.Ltmp638:
	movl	%eax, 20(%esp)
	movl	%edx, 16(%esp)
	movl	$_ZGVZN2pp12_GLOBAL__N_113get_interfaceI17PPB_WebSocket_1_0EEPKT_vE5funcs, (%esp)
	calll	__cxa_guard_abort
	movl	20(%esp), %eax
	movl	%eax, (%esp)
	calll	_Unwind_Resume
.Ltmp645:
	.size	_ZN2pp12_GLOBAL__N_113get_interfaceI17PPB_WebSocket_1_0EEPKT_v, .Ltmp645-_ZN2pp12_GLOBAL__N_113get_interfaceI17PPB_WebSocket_1_0EEPKT_v
.Ltmp646:
	.cfi_endproc
.Leh_func_end71:
	.section	.gcc_except_table,"a",@progbits
	.align	4
GCC_except_table71:
.Lexception71:
	.byte	255                     # @LPStart Encoding = omit
	.byte	0                       # @TType Encoding = absptr
	.byte	41                      # @TType base offset
	.byte	3                       # Call site Encoding = udata4
	.byte	39                      # Call site table length
.Lset206 = .Leh_func_begin71-.Leh_func_begin71 # >> Call Site 1 <<
	.long	.Lset206
.Lset207 = .Ltmp632-.Leh_func_begin71   #   Call between .Leh_func_begin71 and .Ltmp632
	.long	.Lset207
	.long	0                       #     has no landing pad
	.byte	0                       #   On action: cleanup
.Lset208 = .Ltmp632-.Leh_func_begin71   # >> Call Site 2 <<
	.long	.Lset208
.Lset209 = .Ltmp637-.Ltmp632            #   Call between .Ltmp632 and .Ltmp637
	.long	.Lset209
.Lset210 = .Ltmp638-.Leh_func_begin71   #     jumps to .Ltmp638
	.long	.Lset210
	.byte	0                       #   On action: cleanup
.Lset211 = .Ltmp637-.Leh_func_begin71   # >> Call Site 3 <<
	.long	.Lset211
.Lset212 = .Leh_func_end71-.Ltmp637     #   Call between .Ltmp637 and .Leh_func_end71
	.long	.Lset212
	.long	0                       #     has no landing pad
	.byte	0                       #   On action: cleanup
	.align	4

	.text
	.globl	_ZN2pp9WebSocketD0Ev
	.align	16, 0x90
	.type	_ZN2pp9WebSocketD0Ev,@function
_ZN2pp9WebSocketD0Ev:                   # @_ZN2pp9WebSocketD0Ev
.Ltmp652:
	.cfi_startproc
	.cfi_personality 0, __gxx_personality_v0
.Leh_func_begin72:
	.cfi_lsda 0, .Lexception72
# BB#0:
	pushl	%esi
.Ltmp653:
	.cfi_def_cfa_offset 8
	subl	$24, %esp
.Ltmp654:
	.cfi_def_cfa_offset 32
.Ltmp655:
	.cfi_offset %esi, -8
	movl	32(%esp), %esi
	movl	%esi, 20(%esp)
.Ltmp647:
	movl	%esi, (%esp)
	calll	_ZN2pp9WebSocketD1Ev
.Ltmp648:
# BB#1:
	movl	%esi, (%esp)
	calll	_ZdlPv
	addl	$24, %esp
	popl	%esi
	ret
.LBB72_2:
.Ltmp649:
	movl	%eax, 16(%esp)
	movl	%edx, 12(%esp)
	movl	%esi, (%esp)
	calll	_ZdlPv
	movl	16(%esp), %eax
	movl	%eax, (%esp)
	calll	_Unwind_Resume
.Ltmp656:
	.size	_ZN2pp9WebSocketD0Ev, .Ltmp656-_ZN2pp9WebSocketD0Ev
.Ltmp657:
	.cfi_endproc
.Leh_func_end72:
	.section	.gcc_except_table,"a",@progbits
	.align	4
GCC_except_table72:
.Lexception72:
	.byte	255                     # @LPStart Encoding = omit
	.byte	0                       # @TType Encoding = absptr
	.byte	156                     # @TType base offset
	.zero	1
	.byte	3                       # Call site Encoding = udata4
	.byte	26                      # Call site table length
.Lset213 = .Ltmp647-.Leh_func_begin72   # >> Call Site 1 <<
	.long	.Lset213
.Lset214 = .Ltmp648-.Ltmp647            #   Call between .Ltmp647 and .Ltmp648
	.long	.Lset214
.Lset215 = .Ltmp649-.Leh_func_begin72   #     jumps to .Ltmp649
	.long	.Lset215
	.byte	0                       #   On action: cleanup
.Lset216 = .Ltmp648-.Leh_func_begin72   # >> Call Site 2 <<
	.long	.Lset216
.Lset217 = .Leh_func_end72-.Ltmp648     #   Call between .Ltmp648 and .Leh_func_end72
	.long	.Lset217
	.long	0                       #     has no landing pad
	.byte	0                       #   On action: cleanup
	.align	4

	.text
	.globl	_ZN2pp9WebSocketD2Ev
	.align	16, 0x90
	.type	_ZN2pp9WebSocketD2Ev,@function
_ZN2pp9WebSocketD2Ev:                   # @_ZN2pp9WebSocketD2Ev
.Ltmp659:
	.cfi_startproc
# BB#0:
	subl	$12, %esp
.Ltmp660:
	.cfi_def_cfa_offset 16
	movl	16(%esp), %eax
	movl	%eax, 8(%esp)
	movl	%eax, (%esp)
	calll	_ZN2pp8ResourceD2Ev
	addl	$12, %esp
	ret
.Ltmp661:
	.size	_ZN2pp9WebSocketD2Ev, .Ltmp661-_ZN2pp9WebSocketD2Ev
.Ltmp662:
	.cfi_endproc
.Leh_func_end73:

	.globl	_ZN2pp9WebSocket7ConnectERKNS_3VarEPS2_jRKNS_18CompletionCallbackE
	.align	16, 0x90
	.type	_ZN2pp9WebSocket7ConnectERKNS_3VarEPS2_jRKNS_18CompletionCallbackE,@function
_ZN2pp9WebSocket7ConnectERKNS_3VarEPS2_jRKNS_18CompletionCallbackE: # @_ZN2pp9WebSocket7ConnectERKNS_3VarEPS2_jRKNS_18CompletionCallbackE
.Ltmp668:
	.cfi_startproc
# BB#0:
	pushl	%ebp
.Ltmp669:
	.cfi_def_cfa_offset 8
	pushl	%ebx
.Ltmp670:
	.cfi_def_cfa_offset 12
	pushl	%edi
.Ltmp671:
	.cfi_def_cfa_offset 16
	pushl	%esi
.Ltmp672:
	.cfi_def_cfa_offset 20
	subl	$108, %esp
.Ltmp673:
	.cfi_def_cfa_offset 128
.Ltmp674:
	.cfi_offset %esi, -20
.Ltmp675:
	.cfi_offset %edi, -16
.Ltmp676:
	.cfi_offset %ebx, -12
.Ltmp677:
	.cfi_offset %ebp, -8
	movl	128(%esp), %eax
	movl	%eax, 100(%esp)
	movl	132(%esp), %eax
	movl	%eax, 96(%esp)
	movl	136(%esp), %eax
	movl	%eax, 92(%esp)
	movl	140(%esp), %eax
	movl	%eax, 88(%esp)
	movl	144(%esp), %eax
	movl	%eax, 84(%esp)
	movl	100(%esp), %esi
	calll	_ZN2pp12_GLOBAL__N_113has_interfaceI17PPB_WebSocket_1_0EEbv
	testb	%al, %al
	jne	.LBB74_2
# BB#1:
	movl	$-5, 104(%esp)
	jmp	.LBB74_12
.LBB74_2:
	movl	$0, 80(%esp)
	cmpl	$0, 88(%esp)
	je	.LBB74_5
# BB#3:
	movl	$-1, %ecx
	movl	88(%esp), %eax
	movl	$16, %edx
	mull	%edx
	cmovol	%ecx, %eax
	movl	%eax, (%esp)
	calll	_Znaj
	movl	%eax, 80(%esp)
	testl	%eax, %eax
	jne	.LBB74_5
# BB#4:
	movl	$-8, 104(%esp)
	jmp	.LBB74_12
.LBB74_5:
	movl	$0, 76(%esp)
	jmp	.LBB74_6
	.align	16, 0x90
.LBB74_7:                               #   in Loop: Header=BB74_6 Depth=1
	movl	76(%esp), %edi
	imull	$24, %edi, %eax
	addl	92(%esp), %eax
	movl	80(%esp), %ebx
	movl	%eax, (%esp)
	shll	$4, %edi
	calll	_ZNK2pp3Var6pp_varEv
	movsd	(%eax), %xmm0
	movsd	8(%eax), %xmm1
	movsd	%xmm1, 8(%ebx,%edi)
	movsd	%xmm0, (%ebx,%edi)
	incl	76(%esp)
.LBB74_6:                               # =>This Inner Loop Header: Depth=1
	movl	76(%esp), %eax
	cmpl	88(%esp), %eax
	jb	.LBB74_7
# BB#8:
	calll	_ZN2pp12_GLOBAL__N_113get_interfaceI17PPB_WebSocket_1_0EEPKT_v
	movl	8(%eax), %edi
	movl	%esi, (%esp)
	calll	_ZNK2pp8Resource11pp_resourceEv
	movl	%eax, %esi
	movl	96(%esp), %eax
	movl	%eax, (%esp)
	calll	_ZNK2pp3Var6pp_varEv
	movsd	(%eax), %xmm0
	movsd	8(%eax), %xmm1
	movsd	%xmm1, 64(%esp)
	movsd	%xmm0, 56(%esp)
	movl	80(%esp), %ebx
	movl	88(%esp), %ebp
	movl	84(%esp), %eax
	movl	%eax, (%esp)
	calll	_ZNK2pp18CompletionCallback22pp_completion_callbackEv
	movl	8(%eax), %ecx
	movl	%ecx, 48(%esp)
	movsd	(%eax), %xmm0
	movsd	%xmm0, 40(%esp)
	movl	48(%esp), %eax
	movl	%eax, 36(%esp)
	movsd	40(%esp), %xmm0
	movsd	%xmm0, 28(%esp)
	movsd	56(%esp), %xmm0
	movsd	64(%esp), %xmm1
	movsd	%xmm1, 12(%esp)
	movsd	%xmm0, 4(%esp)
	movl	%ebp, 24(%esp)
	movl	%ebx, 20(%esp)
	movl	%esi, (%esp)
	calll	*%edi
	movl	%eax, 72(%esp)
	cmpl	$0, 80(%esp)
	je	.LBB74_11
# BB#9:
	movl	80(%esp), %eax
	testl	%eax, %eax
	je	.LBB74_11
# BB#10:
	movl	%eax, (%esp)
	calll	_ZdaPv
.LBB74_11:
	movl	72(%esp), %eax
	movl	%eax, 104(%esp)
.LBB74_12:
	movl	104(%esp), %eax
	addl	$108, %esp
	popl	%esi
	popl	%edi
	popl	%ebx
	popl	%ebp
	ret
.Ltmp678:
	.size	_ZN2pp9WebSocket7ConnectERKNS_3VarEPS2_jRKNS_18CompletionCallbackE, .Ltmp678-_ZN2pp9WebSocket7ConnectERKNS_3VarEPS2_jRKNS_18CompletionCallbackE
.Ltmp679:
	.cfi_endproc
.Leh_func_end74:

	.globl	_ZN2pp9WebSocket5CloseEtRKNS_3VarERKNS_18CompletionCallbackE
	.align	16, 0x90
	.type	_ZN2pp9WebSocket5CloseEtRKNS_3VarERKNS_18CompletionCallbackE,@function
_ZN2pp9WebSocket5CloseEtRKNS_3VarERKNS_18CompletionCallbackE: # @_ZN2pp9WebSocket5CloseEtRKNS_3VarERKNS_18CompletionCallbackE
.Ltmp684:
	.cfi_startproc
# BB#0:
	pushl	%ebx
.Ltmp685:
	.cfi_def_cfa_offset 8
	pushl	%edi
.Ltmp686:
	.cfi_def_cfa_offset 12
	pushl	%esi
.Ltmp687:
	.cfi_def_cfa_offset 16
	subl	$96, %esp
.Ltmp688:
	.cfi_def_cfa_offset 112
.Ltmp689:
	.cfi_offset %esi, -16
.Ltmp690:
	.cfi_offset %edi, -12
.Ltmp691:
	.cfi_offset %ebx, -8
	movl	112(%esp), %eax
	movl	%eax, 88(%esp)
	movw	116(%esp), %ax
	movw	%ax, 86(%esp)
	movl	120(%esp), %eax
	movl	%eax, 80(%esp)
	movl	124(%esp), %eax
	movl	%eax, 76(%esp)
	movl	88(%esp), %esi
	calll	_ZN2pp12_GLOBAL__N_113has_interfaceI17PPB_WebSocket_1_0EEbv
	testb	%al, %al
	jne	.LBB75_2
# BB#1:
	movl	$-5, 92(%esp)
	jmp	.LBB75_3
.LBB75_2:
	calll	_ZN2pp12_GLOBAL__N_113get_interfaceI17PPB_WebSocket_1_0EEPKT_v
	movl	12(%eax), %edi
	movl	%esi, (%esp)
	calll	_ZNK2pp8Resource11pp_resourceEv
	movl	%eax, %esi
	movzwl	86(%esp), %ebx
	movl	80(%esp), %eax
	movl	%eax, (%esp)
	calll	_ZNK2pp3Var6pp_varEv
	movsd	(%eax), %xmm0
	movsd	8(%eax), %xmm1
	movsd	%xmm1, 64(%esp)
	movsd	%xmm0, 56(%esp)
	movl	76(%esp), %eax
	movl	%eax, (%esp)
	calll	_ZNK2pp18CompletionCallback22pp_completion_callbackEv
	movl	8(%eax), %ecx
	movl	%ecx, 48(%esp)
	movsd	(%eax), %xmm0
	movsd	%xmm0, 40(%esp)
	movl	48(%esp), %eax
	movl	%eax, 32(%esp)
	movsd	40(%esp), %xmm0
	movsd	%xmm0, 24(%esp)
	movsd	56(%esp), %xmm0
	movsd	64(%esp), %xmm1
	movsd	%xmm1, 16(%esp)
	movsd	%xmm0, 8(%esp)
	movl	%ebx, 4(%esp)
	movl	%esi, (%esp)
	calll	*%edi
	movl	%eax, 92(%esp)
.LBB75_3:
	movl	92(%esp), %eax
	addl	$96, %esp
	popl	%esi
	popl	%edi
	popl	%ebx
	ret
.Ltmp692:
	.size	_ZN2pp9WebSocket5CloseEtRKNS_3VarERKNS_18CompletionCallbackE, .Ltmp692-_ZN2pp9WebSocket5CloseEtRKNS_3VarERKNS_18CompletionCallbackE
.Ltmp693:
	.cfi_endproc
.Leh_func_end75:

	.globl	_ZN2pp9WebSocket14ReceiveMessageEPNS_3VarERKNS_18CompletionCallbackE
	.align	16, 0x90
	.type	_ZN2pp9WebSocket14ReceiveMessageEPNS_3VarERKNS_18CompletionCallbackE,@function
_ZN2pp9WebSocket14ReceiveMessageEPNS_3VarERKNS_18CompletionCallbackE: # @_ZN2pp9WebSocket14ReceiveMessageEPNS_3VarERKNS_18CompletionCallbackE
.Ltmp705:
	.cfi_startproc
	.cfi_personality 0, __gxx_personality_v0
.Leh_func_begin76:
	.cfi_lsda 0, .Lexception76
# BB#0:
	pushl	%ebp
.Ltmp706:
	.cfi_def_cfa_offset 8
	pushl	%ebx
.Ltmp707:
	.cfi_def_cfa_offset 12
	pushl	%edi
.Ltmp708:
	.cfi_def_cfa_offset 16
	pushl	%esi
.Ltmp709:
	.cfi_def_cfa_offset 20
	subl	$92, %esp
.Ltmp710:
	.cfi_def_cfa_offset 112
.Ltmp711:
	.cfi_offset %esi, -20
.Ltmp712:
	.cfi_offset %edi, -16
.Ltmp713:
	.cfi_offset %ebx, -12
.Ltmp714:
	.cfi_offset %ebp, -8
	movl	112(%esp), %eax
	movl	%eax, 84(%esp)
	movl	116(%esp), %eax
	movl	%eax, 80(%esp)
	movl	120(%esp), %eax
	movl	%eax, 76(%esp)
	movl	84(%esp), %esi
	calll	_ZN2pp12_GLOBAL__N_113has_interfaceI17PPB_WebSocket_1_0EEbv
	testb	%al, %al
	jne	.LBB76_2
# BB#1:
	movl	$-5, 88(%esp)
	jmp	.LBB76_6
.LBB76_2:
	cmpl	$0, 80(%esp)
	je	.LBB76_5
# BB#3:
	movl	80(%esp), %ebx
	movl	(%ebx), %eax
	movl	8(%eax), %ebp
	leal	48(%esp), %edi
	movl	%edi, (%esp)
	calll	_ZN2pp3VarC1Ev
.Ltmp694:
	movl	%edi, 4(%esp)
	movl	%ebx, (%esp)
	calll	*%ebp
.Ltmp695:
# BB#4:
	movl	%edi, (%esp)
	calll	_ZN2pp3VarD1Ev
.LBB76_5:
	calll	_ZN2pp12_GLOBAL__N_113get_interfaceI17PPB_WebSocket_1_0EEPKT_v
	movl	16(%eax), %ebx
	movl	%esi, (%esp)
	calll	_ZNK2pp8Resource11pp_resourceEv
	movl	%eax, %esi
	movl	80(%esp), %eax
	movl	%eax, (%esp)
	calll	_ZNK2pp3Var6pp_varEv
	movl	%eax, %edi
	movl	76(%esp), %eax
	movl	%eax, (%esp)
	calll	_ZNK2pp18CompletionCallback22pp_completion_callbackEv
	movl	8(%eax), %ecx
	movl	%ecx, 32(%esp)
	movsd	(%eax), %xmm0
	movsd	%xmm0, 24(%esp)
	movl	32(%esp), %eax
	movl	%eax, 16(%esp)
	movsd	24(%esp), %xmm0
	movsd	%xmm0, 8(%esp)
	movl	%edi, 4(%esp)
	movl	%esi, (%esp)
	calll	*%ebx
	movl	%eax, 88(%esp)
.LBB76_6:
	movl	88(%esp), %eax
	addl	$92, %esp
	popl	%esi
	popl	%edi
	popl	%ebx
	popl	%ebp
	ret
.LBB76_7:
.Ltmp696:
	movl	%eax, 44(%esp)
	movl	%edx, 40(%esp)
.Ltmp697:
	movl	%edi, (%esp)
	calll	_ZN2pp3VarD1Ev
.Ltmp698:
# BB#8:
	movl	44(%esp), %eax
	movl	%eax, (%esp)
	calll	_Unwind_Resume
.LBB76_9:
.Ltmp699:
	calll	_ZSt9terminatev
.Ltmp715:
	.size	_ZN2pp9WebSocket14ReceiveMessageEPNS_3VarERKNS_18CompletionCallbackE, .Ltmp715-_ZN2pp9WebSocket14ReceiveMessageEPNS_3VarERKNS_18CompletionCallbackE
.Ltmp716:
	.cfi_endproc
.Leh_func_end76:
	.section	.gcc_except_table,"a",@progbits
	.align	4
GCC_except_table76:
.Lexception76:
	.byte	255                     # @LPStart Encoding = omit
	.byte	0                       # @TType Encoding = absptr
	.byte	73                      # @TType base offset
	.byte	3                       # Call site Encoding = udata4
	.byte	65                      # Call site table length
.Lset218 = .Leh_func_begin76-.Leh_func_begin76 # >> Call Site 1 <<
	.long	.Lset218
.Lset219 = .Ltmp694-.Leh_func_begin76   #   Call between .Leh_func_begin76 and .Ltmp694
	.long	.Lset219
	.long	0                       #     has no landing pad
	.byte	0                       #   On action: cleanup
.Lset220 = .Ltmp694-.Leh_func_begin76   # >> Call Site 2 <<
	.long	.Lset220
.Lset221 = .Ltmp695-.Ltmp694            #   Call between .Ltmp694 and .Ltmp695
	.long	.Lset221
.Lset222 = .Ltmp696-.Leh_func_begin76   #     jumps to .Ltmp696
	.long	.Lset222
	.byte	0                       #   On action: cleanup
.Lset223 = .Ltmp695-.Leh_func_begin76   # >> Call Site 3 <<
	.long	.Lset223
.Lset224 = .Ltmp697-.Ltmp695            #   Call between .Ltmp695 and .Ltmp697
	.long	.Lset224
	.long	0                       #     has no landing pad
	.byte	0                       #   On action: cleanup
.Lset225 = .Ltmp697-.Leh_func_begin76   # >> Call Site 4 <<
	.long	.Lset225
.Lset226 = .Ltmp698-.Ltmp697            #   Call between .Ltmp697 and .Ltmp698
	.long	.Lset226
.Lset227 = .Ltmp699-.Leh_func_begin76   #     jumps to .Ltmp699
	.long	.Lset227
	.byte	1                       #   On action: 1
.Lset228 = .Ltmp698-.Leh_func_begin76   # >> Call Site 5 <<
	.long	.Lset228
.Lset229 = .Leh_func_end76-.Ltmp698     #   Call between .Ltmp698 and .Leh_func_end76
	.long	.Lset229
	.long	0                       #     has no landing pad
	.byte	0                       #   On action: cleanup
	.byte	1                       # >> Action Record 1 <<
                                        #   Catch TypeInfo 1
	.byte	0                       #   No further actions
                                        # >> Catch TypeInfos <<
	.long	0                       # TypeInfo 1
	.align	4

	.text
	.globl	_ZN2pp9WebSocket11SendMessageERKNS_3VarE
	.align	16, 0x90
	.type	_ZN2pp9WebSocket11SendMessageERKNS_3VarE,@function
_ZN2pp9WebSocket11SendMessageERKNS_3VarE: # @_ZN2pp9WebSocket11SendMessageERKNS_3VarE
.Ltmp720:
	.cfi_startproc
# BB#0:
	pushl	%edi
.Ltmp721:
	.cfi_def_cfa_offset 8
	pushl	%esi
.Ltmp722:
	.cfi_def_cfa_offset 12
	subl	$52, %esp
.Ltmp723:
	.cfi_def_cfa_offset 64
.Ltmp724:
	.cfi_offset %esi, -12
.Ltmp725:
	.cfi_offset %edi, -8
	movl	64(%esp), %eax
	movl	%eax, 44(%esp)
	movl	68(%esp), %eax
	movl	%eax, 40(%esp)
	movl	44(%esp), %esi
	calll	_ZN2pp12_GLOBAL__N_113has_interfaceI17PPB_WebSocket_1_0EEbv
	testb	%al, %al
	jne	.LBB77_2
# BB#1:
	movl	$-5, 48(%esp)
	jmp	.LBB77_3
.LBB77_2:
	calll	_ZN2pp12_GLOBAL__N_113get_interfaceI17PPB_WebSocket_1_0EEPKT_v
	movl	20(%eax), %edi
	movl	%esi, (%esp)
	calll	_ZNK2pp8Resource11pp_resourceEv
	movl	%eax, %esi
	movl	40(%esp), %eax
	movl	%eax, (%esp)
	calll	_ZNK2pp3Var6pp_varEv
	movsd	(%eax), %xmm0
	movsd	8(%eax), %xmm1
	movsd	%xmm1, 32(%esp)
	movsd	%xmm0, 24(%esp)
	movsd	24(%esp), %xmm0
	movsd	32(%esp), %xmm1
	movsd	%xmm1, 12(%esp)
	movsd	%xmm0, 4(%esp)
	movl	%esi, (%esp)
	calll	*%edi
	movl	%eax, 48(%esp)
.LBB77_3:
	movl	48(%esp), %eax
	addl	$52, %esp
	popl	%esi
	popl	%edi
	ret
.Ltmp726:
	.size	_ZN2pp9WebSocket11SendMessageERKNS_3VarE, .Ltmp726-_ZN2pp9WebSocket11SendMessageERKNS_3VarE
.Ltmp727:
	.cfi_endproc
.Leh_func_end77:

	.globl	_ZN2pp9WebSocket17GetBufferedAmountEv
	.align	16, 0x90
	.type	_ZN2pp9WebSocket17GetBufferedAmountEv,@function
_ZN2pp9WebSocket17GetBufferedAmountEv:  # @_ZN2pp9WebSocket17GetBufferedAmountEv
.Ltmp731:
	.cfi_startproc
# BB#0:
	pushl	%edi
.Ltmp732:
	.cfi_def_cfa_offset 8
	pushl	%esi
.Ltmp733:
	.cfi_def_cfa_offset 12
	subl	$20, %esp
.Ltmp734:
	.cfi_def_cfa_offset 32
.Ltmp735:
	.cfi_offset %esi, -12
.Ltmp736:
	.cfi_offset %edi, -8
	movl	32(%esp), %esi
	movl	%esi, 4(%esp)
	calll	_ZN2pp12_GLOBAL__N_113has_interfaceI17PPB_WebSocket_1_0EEbv
	testb	%al, %al
	jne	.LBB78_2
# BB#1:
	movl	$0, 12(%esp)
	movl	$0, 8(%esp)
	jmp	.LBB78_3
.LBB78_2:
	calll	_ZN2pp12_GLOBAL__N_113get_interfaceI17PPB_WebSocket_1_0EEPKT_v
	movl	24(%eax), %edi
	movl	%esi, (%esp)
	calll	_ZNK2pp8Resource11pp_resourceEv
	movl	%eax, (%esp)
	calll	*%edi
	movl	%edx, 12(%esp)
	movl	%eax, 8(%esp)
.LBB78_3:
	movl	8(%esp), %eax
	movl	12(%esp), %edx
	addl	$20, %esp
	popl	%esi
	popl	%edi
	ret
.Ltmp737:
	.size	_ZN2pp9WebSocket17GetBufferedAmountEv, .Ltmp737-_ZN2pp9WebSocket17GetBufferedAmountEv
.Ltmp738:
	.cfi_endproc
.Leh_func_end78:

	.globl	_ZN2pp9WebSocket12GetCloseCodeEv
	.align	16, 0x90
	.type	_ZN2pp9WebSocket12GetCloseCodeEv,@function
_ZN2pp9WebSocket12GetCloseCodeEv:       # @_ZN2pp9WebSocket12GetCloseCodeEv
.Ltmp742:
	.cfi_startproc
# BB#0:
	pushl	%edi
.Ltmp743:
	.cfi_def_cfa_offset 8
	pushl	%esi
.Ltmp744:
	.cfi_def_cfa_offset 12
	subl	$20, %esp
.Ltmp745:
	.cfi_def_cfa_offset 32
.Ltmp746:
	.cfi_offset %esi, -12
.Ltmp747:
	.cfi_offset %edi, -8
	movl	32(%esp), %esi
	movl	%esi, 12(%esp)
	calll	_ZN2pp12_GLOBAL__N_113has_interfaceI17PPB_WebSocket_1_0EEbv
	testb	%al, %al
	jne	.LBB79_2
# BB#1:
	movw	$0, 18(%esp)
	jmp	.LBB79_3
.LBB79_2:
	calll	_ZN2pp12_GLOBAL__N_113get_interfaceI17PPB_WebSocket_1_0EEPKT_v
	movl	28(%eax), %edi
	movl	%esi, (%esp)
	calll	_ZNK2pp8Resource11pp_resourceEv
	movl	%eax, (%esp)
	calll	*%edi
	movw	%ax, 18(%esp)
.LBB79_3:
	movzwl	18(%esp), %eax
	addl	$20, %esp
	popl	%esi
	popl	%edi
	ret
.Ltmp748:
	.size	_ZN2pp9WebSocket12GetCloseCodeEv, .Ltmp748-_ZN2pp9WebSocket12GetCloseCodeEv
.Ltmp749:
	.cfi_endproc
.Leh_func_end79:

	.globl	_ZN2pp9WebSocket14GetCloseReasonEv
	.align	16, 0x90
	.type	_ZN2pp9WebSocket14GetCloseReasonEv,@function
_ZN2pp9WebSocket14GetCloseReasonEv:     # @_ZN2pp9WebSocket14GetCloseReasonEv
.Ltmp754:
	.cfi_startproc
# BB#0:
	pushl	%ebx
.Ltmp755:
	.cfi_def_cfa_offset 8
	pushl	%edi
.Ltmp756:
	.cfi_def_cfa_offset 12
	pushl	%esi
.Ltmp757:
	.cfi_def_cfa_offset 16
	subl	$48, %esp
.Ltmp758:
	.cfi_def_cfa_offset 64
.Ltmp759:
	.cfi_offset %esi, -16
.Ltmp760:
	.cfi_offset %edi, -12
.Ltmp761:
	.cfi_offset %ebx, -8
	movl	68(%esp), %edi
	movl	%edi, 44(%esp)
	calll	_ZN2pp12_GLOBAL__N_113has_interfaceI17PPB_WebSocket_1_0EEbv
	movl	64(%esp), %esi
	testb	%al, %al
	jne	.LBB80_2
# BB#1:
	movl	%esi, (%esp)
	movl	$0, 4(%esp)
	calll	_ZN2pp3VarC1Ei
	jmp	.LBB80_3
.LBB80_2:
	calll	_ZN2pp12_GLOBAL__N_113get_interfaceI17PPB_WebSocket_1_0EEPKT_v
	movl	32(%eax), %ebx
	movl	%edi, (%esp)
	calll	_ZNK2pp8Resource11pp_resourceEv
	movl	%eax, 4(%esp)
	leal	24(%esp), %eax
	movl	%eax, (%esp)
	calll	*%ebx
	subl	$4, %esp
	movsd	24(%esp), %xmm0
	movsd	32(%esp), %xmm1
	movsd	%xmm1, 16(%esp)
	movsd	%xmm0, 8(%esp)
	movl	%esi, (%esp)
	movl	$0, 4(%esp)
	calll	_ZN2pp3VarC1ENS_7PassRefE6PP_Var
.LBB80_3:
	addl	$48, %esp
	popl	%esi
	popl	%edi
	popl	%ebx
	ret	$4
.Ltmp762:
	.size	_ZN2pp9WebSocket14GetCloseReasonEv, .Ltmp762-_ZN2pp9WebSocket14GetCloseReasonEv
.Ltmp763:
	.cfi_endproc
.Leh_func_end80:

	.section	.text._ZN2pp3VarC1ENS_7PassRefE6PP_Var,"axG",@progbits,_ZN2pp3VarC1ENS_7PassRefE6PP_Var,comdat
	.weak	_ZN2pp3VarC1ENS_7PassRefE6PP_Var
	.align	16, 0x90
	.type	_ZN2pp3VarC1ENS_7PassRefE6PP_Var,@function
_ZN2pp3VarC1ENS_7PassRefE6PP_Var:       # @_ZN2pp3VarC1ENS_7PassRefE6PP_Var
.Ltmp765:
	.cfi_startproc
# BB#0:
	subl	$44, %esp
.Ltmp766:
	.cfi_def_cfa_offset 48
	movl	48(%esp), %eax
	movl	%eax, 40(%esp)
	movl	52(%esp), %eax
	movl	%eax, 36(%esp)
	movl	40(%esp), %ecx
	movsd	56(%esp), %xmm0
	movsd	64(%esp), %xmm1
	movsd	%xmm1, 16(%esp)
	movsd	%xmm0, 8(%esp)
	movl	%eax, 4(%esp)
	movl	%ecx, (%esp)
	calll	_ZN2pp3VarC2ENS_7PassRefE6PP_Var
	addl	$44, %esp
	ret
.Ltmp767:
	.size	_ZN2pp3VarC1ENS_7PassRefE6PP_Var, .Ltmp767-_ZN2pp3VarC1ENS_7PassRefE6PP_Var
.Ltmp768:
	.cfi_endproc
.Leh_func_end81:

	.text
	.globl	_ZN2pp9WebSocket16GetCloseWasCleanEv
	.align	16, 0x90
	.type	_ZN2pp9WebSocket16GetCloseWasCleanEv,@function
_ZN2pp9WebSocket16GetCloseWasCleanEv:   # @_ZN2pp9WebSocket16GetCloseWasCleanEv
.Ltmp772:
	.cfi_startproc
# BB#0:
	pushl	%edi
.Ltmp773:
	.cfi_def_cfa_offset 8
	pushl	%esi
.Ltmp774:
	.cfi_def_cfa_offset 12
	subl	$20, %esp
.Ltmp775:
	.cfi_def_cfa_offset 32
.Ltmp776:
	.cfi_offset %esi, -12
.Ltmp777:
	.cfi_offset %edi, -8
	movl	32(%esp), %esi
	movl	%esi, 12(%esp)
	calll	_ZN2pp12_GLOBAL__N_113has_interfaceI17PPB_WebSocket_1_0EEbv
	testb	%al, %al
	jne	.LBB82_2
# BB#1:
	movb	$0, 19(%esp)
	jmp	.LBB82_3
.LBB82_2:
	calll	_ZN2pp12_GLOBAL__N_113get_interfaceI17PPB_WebSocket_1_0EEPKT_v
	movl	36(%eax), %edi
	movl	%esi, (%esp)
	calll	_ZNK2pp8Resource11pp_resourceEv
	movl	%eax, (%esp)
	calll	*%edi
	movl	%eax, 8(%esp)
	movl	%eax, (%esp)
	calll	_Z9PP_ToBool7PP_Bool
	movb	%al, 19(%esp)
.LBB82_3:
	movzbl	19(%esp), %eax
	addl	$20, %esp
	popl	%esi
	popl	%edi
	ret
.Ltmp778:
	.size	_ZN2pp9WebSocket16GetCloseWasCleanEv, .Ltmp778-_ZN2pp9WebSocket16GetCloseWasCleanEv
.Ltmp779:
	.cfi_endproc
.Leh_func_end82:

	.globl	_ZN2pp9WebSocket13GetExtensionsEv
	.align	16, 0x90
	.type	_ZN2pp9WebSocket13GetExtensionsEv,@function
_ZN2pp9WebSocket13GetExtensionsEv:      # @_ZN2pp9WebSocket13GetExtensionsEv
.Ltmp784:
	.cfi_startproc
# BB#0:
	pushl	%ebx
.Ltmp785:
	.cfi_def_cfa_offset 8
	pushl	%edi
.Ltmp786:
	.cfi_def_cfa_offset 12
	pushl	%esi
.Ltmp787:
	.cfi_def_cfa_offset 16
	subl	$48, %esp
.Ltmp788:
	.cfi_def_cfa_offset 64
.Ltmp789:
	.cfi_offset %esi, -16
.Ltmp790:
	.cfi_offset %edi, -12
.Ltmp791:
	.cfi_offset %ebx, -8
	movl	68(%esp), %edi
	movl	%edi, 44(%esp)
	calll	_ZN2pp12_GLOBAL__N_113has_interfaceI17PPB_WebSocket_1_0EEbv
	movl	64(%esp), %esi
	testb	%al, %al
	jne	.LBB83_2
# BB#1:
	movl	%esi, (%esp)
	calll	_ZN2pp3VarC1Ev
	jmp	.LBB83_3
.LBB83_2:
	calll	_ZN2pp12_GLOBAL__N_113get_interfaceI17PPB_WebSocket_1_0EEPKT_v
	movl	40(%eax), %ebx
	movl	%edi, (%esp)
	calll	_ZNK2pp8Resource11pp_resourceEv
	movl	%eax, 4(%esp)
	leal	24(%esp), %eax
	movl	%eax, (%esp)
	calll	*%ebx
	subl	$4, %esp
	movsd	24(%esp), %xmm0
	movsd	32(%esp), %xmm1
	movsd	%xmm1, 16(%esp)
	movsd	%xmm0, 8(%esp)
	movl	%esi, (%esp)
	movl	$0, 4(%esp)
	calll	_ZN2pp3VarC1ENS_7PassRefE6PP_Var
.LBB83_3:
	addl	$48, %esp
	popl	%esi
	popl	%edi
	popl	%ebx
	ret	$4
.Ltmp792:
	.size	_ZN2pp9WebSocket13GetExtensionsEv, .Ltmp792-_ZN2pp9WebSocket13GetExtensionsEv
.Ltmp793:
	.cfi_endproc
.Leh_func_end83:

	.globl	_ZN2pp9WebSocket11GetProtocolEv
	.align	16, 0x90
	.type	_ZN2pp9WebSocket11GetProtocolEv,@function
_ZN2pp9WebSocket11GetProtocolEv:        # @_ZN2pp9WebSocket11GetProtocolEv
.Ltmp798:
	.cfi_startproc
# BB#0:
	pushl	%ebx
.Ltmp799:
	.cfi_def_cfa_offset 8
	pushl	%edi
.Ltmp800:
	.cfi_def_cfa_offset 12
	pushl	%esi
.Ltmp801:
	.cfi_def_cfa_offset 16
	subl	$48, %esp
.Ltmp802:
	.cfi_def_cfa_offset 64
.Ltmp803:
	.cfi_offset %esi, -16
.Ltmp804:
	.cfi_offset %edi, -12
.Ltmp805:
	.cfi_offset %ebx, -8
	movl	68(%esp), %edi
	movl	%edi, 44(%esp)
	calll	_ZN2pp12_GLOBAL__N_113has_interfaceI17PPB_WebSocket_1_0EEbv
	movl	64(%esp), %esi
	testb	%al, %al
	jne	.LBB84_2
# BB#1:
	movl	%esi, (%esp)
	calll	_ZN2pp3VarC1Ev
	jmp	.LBB84_3
.LBB84_2:
	calll	_ZN2pp12_GLOBAL__N_113get_interfaceI17PPB_WebSocket_1_0EEPKT_v
	movl	44(%eax), %ebx
	movl	%edi, (%esp)
	calll	_ZNK2pp8Resource11pp_resourceEv
	movl	%eax, 4(%esp)
	leal	24(%esp), %eax
	movl	%eax, (%esp)
	calll	*%ebx
	subl	$4, %esp
	movsd	24(%esp), %xmm0
	movsd	32(%esp), %xmm1
	movsd	%xmm1, 16(%esp)
	movsd	%xmm0, 8(%esp)
	movl	%esi, (%esp)
	movl	$0, 4(%esp)
	calll	_ZN2pp3VarC1ENS_7PassRefE6PP_Var
.LBB84_3:
	addl	$48, %esp
	popl	%esi
	popl	%edi
	popl	%ebx
	ret	$4
.Ltmp806:
	.size	_ZN2pp9WebSocket11GetProtocolEv, .Ltmp806-_ZN2pp9WebSocket11GetProtocolEv
.Ltmp807:
	.cfi_endproc
.Leh_func_end84:

	.globl	_ZN2pp9WebSocket13GetReadyStateEv
	.align	16, 0x90
	.type	_ZN2pp9WebSocket13GetReadyStateEv,@function
_ZN2pp9WebSocket13GetReadyStateEv:      # @_ZN2pp9WebSocket13GetReadyStateEv
.Ltmp811:
	.cfi_startproc
# BB#0:
	pushl	%edi
.Ltmp812:
	.cfi_def_cfa_offset 8
	pushl	%esi
.Ltmp813:
	.cfi_def_cfa_offset 12
	subl	$20, %esp
.Ltmp814:
	.cfi_def_cfa_offset 32
.Ltmp815:
	.cfi_offset %esi, -12
.Ltmp816:
	.cfi_offset %edi, -8
	movl	32(%esp), %esi
	movl	%esi, 12(%esp)
	calll	_ZN2pp12_GLOBAL__N_113has_interfaceI17PPB_WebSocket_1_0EEbv
	testb	%al, %al
	jne	.LBB85_2
# BB#1:
	movl	$-1, 16(%esp)
	jmp	.LBB85_3
.LBB85_2:
	calll	_ZN2pp12_GLOBAL__N_113get_interfaceI17PPB_WebSocket_1_0EEPKT_v
	movl	48(%eax), %edi
	movl	%esi, (%esp)
	calll	_ZNK2pp8Resource11pp_resourceEv
	movl	%eax, (%esp)
	calll	*%edi
	movl	%eax, 16(%esp)
.LBB85_3:
	movl	16(%esp), %eax
	addl	$20, %esp
	popl	%esi
	popl	%edi
	ret
.Ltmp817:
	.size	_ZN2pp9WebSocket13GetReadyStateEv, .Ltmp817-_ZN2pp9WebSocket13GetReadyStateEv
.Ltmp818:
	.cfi_endproc
.Leh_func_end85:

	.globl	_ZN2pp9WebSocket6GetURLEv
	.align	16, 0x90
	.type	_ZN2pp9WebSocket6GetURLEv,@function
_ZN2pp9WebSocket6GetURLEv:              # @_ZN2pp9WebSocket6GetURLEv
.Ltmp823:
	.cfi_startproc
# BB#0:
	pushl	%ebx
.Ltmp824:
	.cfi_def_cfa_offset 8
	pushl	%edi
.Ltmp825:
	.cfi_def_cfa_offset 12
	pushl	%esi
.Ltmp826:
	.cfi_def_cfa_offset 16
	subl	$48, %esp
.Ltmp827:
	.cfi_def_cfa_offset 64
.Ltmp828:
	.cfi_offset %esi, -16
.Ltmp829:
	.cfi_offset %edi, -12
.Ltmp830:
	.cfi_offset %ebx, -8
	movl	68(%esp), %edi
	movl	%edi, 44(%esp)
	calll	_ZN2pp12_GLOBAL__N_113has_interfaceI17PPB_WebSocket_1_0EEbv
	movl	64(%esp), %esi
	testb	%al, %al
	jne	.LBB86_2
# BB#1:
	movl	%esi, (%esp)
	calll	_ZN2pp3VarC1Ev
	jmp	.LBB86_3
.LBB86_2:
	calll	_ZN2pp12_GLOBAL__N_113get_interfaceI17PPB_WebSocket_1_0EEPKT_v
	movl	52(%eax), %ebx
	movl	%edi, (%esp)
	calll	_ZNK2pp8Resource11pp_resourceEv
	movl	%eax, 4(%esp)
	leal	24(%esp), %eax
	movl	%eax, (%esp)
	calll	*%ebx
	subl	$4, %esp
	movsd	24(%esp), %xmm0
	movsd	32(%esp), %xmm1
	movsd	%xmm1, 16(%esp)
	movsd	%xmm0, 8(%esp)
	movl	%esi, (%esp)
	movl	$0, 4(%esp)
	calll	_ZN2pp3VarC1ENS_7PassRefE6PP_Var
.LBB86_3:
	addl	$48, %esp
	popl	%esi
	popl	%edi
	popl	%ebx
	ret	$4
.Ltmp831:
	.size	_ZN2pp9WebSocket6GetURLEv, .Ltmp831-_ZN2pp9WebSocket6GetURLEv
.Ltmp832:
	.cfi_endproc
.Leh_func_end86:

	.align	16, 0x90
	.type	_ZN2pp12_GLOBAL__N_114interface_nameI17PPB_WebSocket_1_0EEPKcv,@function
_ZN2pp12_GLOBAL__N_114interface_nameI17PPB_WebSocket_1_0EEPKcv: # @_ZN2pp12_GLOBAL__N_114interface_nameI17PPB_WebSocket_1_0EEPKcv
# BB#0:
	movl	$.L.str15, %eax
	ret
.Ltmp833:
	.size	_ZN2pp12_GLOBAL__N_114interface_nameI17PPB_WebSocket_1_0EEPKcv, .Ltmp833-_ZN2pp12_GLOBAL__N_114interface_nameI17PPB_WebSocket_1_0EEPKcv

	.section	.text._ZN2pp3VarC2ENS_7PassRefE6PP_Var,"axG",@progbits,_ZN2pp3VarC2ENS_7PassRefE6PP_Var,comdat
	.weak	_ZN2pp3VarC2ENS_7PassRefE6PP_Var
	.align	16, 0x90
	.type	_ZN2pp3VarC2ENS_7PassRefE6PP_Var,@function
_ZN2pp3VarC2ENS_7PassRefE6PP_Var:       # @_ZN2pp3VarC2ENS_7PassRefE6PP_Var
# BB#0:
	subl	$8, %esp
	movl	12(%esp), %eax
	movl	%eax, 4(%esp)
	movl	16(%esp), %eax
	movl	%eax, (%esp)
	movl	4(%esp), %eax
	movl	$_ZTVN2pp3VarE+8, (%eax)
	movsd	20(%esp), %xmm0
	movsd	28(%esp), %xmm1
	movsd	%xmm1, 12(%eax)
	movsd	%xmm0, 4(%eax)
	movb	$1, 20(%eax)
	addl	$8, %esp
	ret
.Ltmp834:
	.size	_ZN2pp3VarC2ENS_7PassRefE6PP_Var, .Ltmp834-_ZN2pp3VarC2ENS_7PassRefE6PP_Var

	.text
	.globl	_ZN2pp9URLLoaderC2Ei
	.align	16, 0x90
	.type	_ZN2pp9URLLoaderC2Ei,@function
_ZN2pp9URLLoaderC2Ei:                   # @_ZN2pp9URLLoaderC2Ei
.Ltmp837:
	.cfi_startproc
# BB#0:
	pushl	%esi
.Ltmp838:
	.cfi_def_cfa_offset 8
	subl	$24, %esp
.Ltmp839:
	.cfi_def_cfa_offset 32
.Ltmp840:
	.cfi_offset %esi, -8
	movl	32(%esp), %eax
	movl	%eax, 20(%esp)
	movl	36(%esp), %eax
	movl	%eax, 16(%esp)
	movl	20(%esp), %esi
	movl	%eax, 4(%esp)
	movl	%esi, (%esp)
	calll	_ZN2pp8ResourceC2Ei
	movl	$_ZTVN2pp9URLLoaderE+8, (%esi)
	addl	$24, %esp
	popl	%esi
	ret
.Ltmp841:
	.size	_ZN2pp9URLLoaderC2Ei, .Ltmp841-_ZN2pp9URLLoaderC2Ei
.Ltmp842:
	.cfi_endproc
.Leh_func_end89:

	.globl	_ZN2pp9URLLoaderC2ERKNS_14InstanceHandleE
	.align	16, 0x90
	.type	_ZN2pp9URLLoaderC2ERKNS_14InstanceHandleE,@function
_ZN2pp9URLLoaderC2ERKNS_14InstanceHandleE: # @_ZN2pp9URLLoaderC2ERKNS_14InstanceHandleE
.Ltmp860:
	.cfi_startproc
	.cfi_personality 0, __gxx_personality_v0
.Leh_func_begin90:
	.cfi_lsda 0, .Lexception90
# BB#0:
	pushl	%edi
.Ltmp861:
	.cfi_def_cfa_offset 8
	pushl	%esi
.Ltmp862:
	.cfi_def_cfa_offset 12
	subl	$36, %esp
.Ltmp863:
	.cfi_def_cfa_offset 48
.Ltmp864:
	.cfi_offset %esi, -12
.Ltmp865:
	.cfi_offset %edi, -8
	movl	48(%esp), %eax
	movl	%eax, 32(%esp)
	movl	52(%esp), %eax
	movl	%eax, 28(%esp)
	movl	32(%esp), %esi
	movl	%esi, (%esp)
	calll	_ZN2pp8ResourceC2Ev
	movl	$_ZTVN2pp9URLLoaderE+8, (%esi)
.Ltmp843:
	calll	_ZN2pp12_GLOBAL__N_113has_interfaceI17PPB_URLLoader_1_0EEbv
.Ltmp844:
# BB#1:
	testb	%al, %al
	je	.LBB90_6
# BB#2:
.Ltmp845:
	calll	_ZN2pp12_GLOBAL__N_113get_interfaceI17PPB_URLLoader_1_0EEPKT_v
.Ltmp846:
# BB#3:
	movl	(%eax), %edi
	movl	28(%esp), %eax
.Ltmp847:
	movl	%eax, (%esp)
	calll	_ZNK2pp14InstanceHandle11pp_instanceEv
.Ltmp848:
# BB#4:
.Ltmp849:
	movl	%eax, (%esp)
	calll	*%edi
.Ltmp850:
# BB#5:
.Ltmp851:
	movl	%eax, 4(%esp)
	movl	%esi, (%esp)
	calll	_ZN2pp8Resource22PassRefFromConstructorEi
.Ltmp852:
.LBB90_6:
	addl	$36, %esp
	popl	%esi
	popl	%edi
	ret
.LBB90_7:
.Ltmp853:
	movl	%eax, 24(%esp)
	movl	%edx, 20(%esp)
.Ltmp854:
	movl	%esi, (%esp)
	calll	_ZN2pp8ResourceD2Ev
.Ltmp855:
# BB#8:
	movl	24(%esp), %eax
	movl	%eax, (%esp)
	calll	_Unwind_Resume
.LBB90_9:
.Ltmp856:
	calll	_ZSt9terminatev
.Ltmp866:
	.size	_ZN2pp9URLLoaderC2ERKNS_14InstanceHandleE, .Ltmp866-_ZN2pp9URLLoaderC2ERKNS_14InstanceHandleE
.Ltmp867:
	.cfi_endproc
.Leh_func_end90:
	.section	.gcc_except_table,"a",@progbits
	.align	4
GCC_except_table90:
.Lexception90:
	.byte	255                     # @LPStart Encoding = omit
	.byte	0                       # @TType Encoding = absptr
	.byte	175                     # @TType base offset
	.zero	1,128
	.zero	1
	.byte	3                       # Call site Encoding = udata4
	.byte	39                      # Call site table length
.Lset230 = .Ltmp843-.Leh_func_begin90   # >> Call Site 1 <<
	.long	.Lset230
.Lset231 = .Ltmp852-.Ltmp843            #   Call between .Ltmp843 and .Ltmp852
	.long	.Lset231
.Lset232 = .Ltmp853-.Leh_func_begin90   #     jumps to .Ltmp853
	.long	.Lset232
	.byte	0                       #   On action: cleanup
.Lset233 = .Ltmp854-.Leh_func_begin90   # >> Call Site 2 <<
	.long	.Lset233
.Lset234 = .Ltmp855-.Ltmp854            #   Call between .Ltmp854 and .Ltmp855
	.long	.Lset234
.Lset235 = .Ltmp856-.Leh_func_begin90   #     jumps to .Ltmp856
	.long	.Lset235
	.byte	1                       #   On action: 1
.Lset236 = .Ltmp855-.Leh_func_begin90   # >> Call Site 3 <<
	.long	.Lset236
.Lset237 = .Leh_func_end90-.Ltmp855     #   Call between .Ltmp855 and .Leh_func_end90
	.long	.Lset237
	.long	0                       #     has no landing pad
	.byte	0                       #   On action: cleanup
	.byte	1                       # >> Action Record 1 <<
                                        #   Catch TypeInfo 1
	.byte	0                       #   No further actions
                                        # >> Catch TypeInfos <<
	.long	0                       # TypeInfo 1
	.align	4

	.text
	.align	16, 0x90
	.type	_ZN2pp12_GLOBAL__N_113has_interfaceI17PPB_URLLoader_1_0EEbv,@function
_ZN2pp12_GLOBAL__N_113has_interfaceI17PPB_URLLoader_1_0EEbv: # @_ZN2pp12_GLOBAL__N_113has_interfaceI17PPB_URLLoader_1_0EEbv
.Ltmp869:
	.cfi_startproc
# BB#0:
	subl	$12, %esp
.Ltmp870:
	.cfi_def_cfa_offset 16
	calll	_ZN2pp12_GLOBAL__N_113get_interfaceI17PPB_URLLoader_1_0EEPKT_v
	testl	%eax, %eax
	setne	%al
	movzbl	%al, %eax
	addl	$12, %esp
	ret
.Ltmp871:
	.size	_ZN2pp12_GLOBAL__N_113has_interfaceI17PPB_URLLoader_1_0EEbv, .Ltmp871-_ZN2pp12_GLOBAL__N_113has_interfaceI17PPB_URLLoader_1_0EEbv
.Ltmp872:
	.cfi_endproc
.Leh_func_end91:

	.align	16, 0x90
	.type	_ZN2pp12_GLOBAL__N_113get_interfaceI17PPB_URLLoader_1_0EEPKT_v,@function
_ZN2pp12_GLOBAL__N_113get_interfaceI17PPB_URLLoader_1_0EEPKT_v: # @_ZN2pp12_GLOBAL__N_113get_interfaceI17PPB_URLLoader_1_0EEPKT_v
.Ltmp882:
	.cfi_startproc
	.cfi_personality 0, __gxx_personality_v0
.Leh_func_begin92:
	.cfi_lsda 0, .Lexception92
# BB#0:
	pushl	%esi
.Ltmp883:
	.cfi_def_cfa_offset 8
	subl	$24, %esp
.Ltmp884:
	.cfi_def_cfa_offset 32
.Ltmp885:
	.cfi_offset %esi, -8
	movb	_ZGVZN2pp12_GLOBAL__N_113get_interfaceI17PPB_URLLoader_1_0EEPKT_vE5funcs, %al
	testb	%al, %al
	jne	.LBB92_6
# BB#1:
	movl	$_ZGVZN2pp12_GLOBAL__N_113get_interfaceI17PPB_URLLoader_1_0EEPKT_vE5funcs, (%esp)
	calll	__cxa_guard_acquire
	testl	%eax, %eax
	je	.LBB92_6
# BB#2:
.Ltmp873:
	calll	_ZN2pp6Module3GetEv
	movl	%eax, %esi
.Ltmp874:
# BB#3:
.Ltmp875:
	calll	_ZN2pp12_GLOBAL__N_114interface_nameI17PPB_URLLoader_1_0EEPKcv
.Ltmp876:
# BB#4:
.Ltmp877:
	movl	%eax, 4(%esp)
	movl	%esi, (%esp)
	calll	_ZN2pp6Module19GetBrowserInterfaceEPKc
.Ltmp878:
# BB#5:
	movl	%eax, _ZZN2pp12_GLOBAL__N_113get_interfaceI17PPB_URLLoader_1_0EEPKT_vE5funcs
	movl	$_ZGVZN2pp12_GLOBAL__N_113get_interfaceI17PPB_URLLoader_1_0EEPKT_vE5funcs, (%esp)
	calll	__cxa_guard_release
.LBB92_6:
	movl	_ZZN2pp12_GLOBAL__N_113get_interfaceI17PPB_URLLoader_1_0EEPKT_vE5funcs, %eax
	addl	$24, %esp
	popl	%esi
	ret
.LBB92_7:
.Ltmp879:
	movl	%eax, 20(%esp)
	movl	%edx, 16(%esp)
	movl	$_ZGVZN2pp12_GLOBAL__N_113get_interfaceI17PPB_URLLoader_1_0EEPKT_vE5funcs, (%esp)
	calll	__cxa_guard_abort
	movl	20(%esp), %eax
	movl	%eax, (%esp)
	calll	_Unwind_Resume
.Ltmp886:
	.size	_ZN2pp12_GLOBAL__N_113get_interfaceI17PPB_URLLoader_1_0EEPKT_v, .Ltmp886-_ZN2pp12_GLOBAL__N_113get_interfaceI17PPB_URLLoader_1_0EEPKT_v
.Ltmp887:
	.cfi_endproc
.Leh_func_end92:
	.section	.gcc_except_table,"a",@progbits
	.align	4
GCC_except_table92:
.Lexception92:
	.byte	255                     # @LPStart Encoding = omit
	.byte	0                       # @TType Encoding = absptr
	.byte	41                      # @TType base offset
	.byte	3                       # Call site Encoding = udata4
	.byte	39                      # Call site table length
.Lset238 = .Leh_func_begin92-.Leh_func_begin92 # >> Call Site 1 <<
	.long	.Lset238
.Lset239 = .Ltmp873-.Leh_func_begin92   #   Call between .Leh_func_begin92 and .Ltmp873
	.long	.Lset239
	.long	0                       #     has no landing pad
	.byte	0                       #   On action: cleanup
.Lset240 = .Ltmp873-.Leh_func_begin92   # >> Call Site 2 <<
	.long	.Lset240
.Lset241 = .Ltmp878-.Ltmp873            #   Call between .Ltmp873 and .Ltmp878
	.long	.Lset241
.Lset242 = .Ltmp879-.Leh_func_begin92   #     jumps to .Ltmp879
	.long	.Lset242
	.byte	0                       #   On action: cleanup
.Lset243 = .Ltmp878-.Leh_func_begin92   # >> Call Site 3 <<
	.long	.Lset243
.Lset244 = .Leh_func_end92-.Ltmp878     #   Call between .Ltmp878 and .Leh_func_end92
	.long	.Lset244
	.long	0                       #     has no landing pad
	.byte	0                       #   On action: cleanup
	.align	4

	.text
	.globl	_ZN2pp9URLLoaderC2ERKS0_
	.align	16, 0x90
	.type	_ZN2pp9URLLoaderC2ERKS0_,@function
_ZN2pp9URLLoaderC2ERKS0_:               # @_ZN2pp9URLLoaderC2ERKS0_
.Ltmp890:
	.cfi_startproc
# BB#0:
	pushl	%esi
.Ltmp891:
	.cfi_def_cfa_offset 8
	subl	$24, %esp
.Ltmp892:
	.cfi_def_cfa_offset 32
.Ltmp893:
	.cfi_offset %esi, -8
	movl	32(%esp), %eax
	movl	%eax, 20(%esp)
	movl	36(%esp), %eax
	movl	%eax, 16(%esp)
	movl	20(%esp), %esi
	movl	%eax, 4(%esp)
	movl	%esi, (%esp)
	calll	_ZN2pp8ResourceC2ERKS0_
	movl	$_ZTVN2pp9URLLoaderE+8, (%esi)
	addl	$24, %esp
	popl	%esi
	ret
.Ltmp894:
	.size	_ZN2pp9URLLoaderC2ERKS0_, .Ltmp894-_ZN2pp9URLLoaderC2ERKS0_
.Ltmp895:
	.cfi_endproc
.Leh_func_end93:

	.globl	_ZN2pp9URLLoader4OpenERKNS_14URLRequestInfoERKNS_18CompletionCallbackE
	.align	16, 0x90
	.type	_ZN2pp9URLLoader4OpenERKNS_14URLRequestInfoERKNS_18CompletionCallbackE,@function
_ZN2pp9URLLoader4OpenERKNS_14URLRequestInfoERKNS_18CompletionCallbackE: # @_ZN2pp9URLLoader4OpenERKNS_14URLRequestInfoERKNS_18CompletionCallbackE
.Ltmp900:
	.cfi_startproc
# BB#0:
	pushl	%ebx
.Ltmp901:
	.cfi_def_cfa_offset 8
	pushl	%edi
.Ltmp902:
	.cfi_def_cfa_offset 12
	pushl	%esi
.Ltmp903:
	.cfi_def_cfa_offset 16
	subl	$64, %esp
.Ltmp904:
	.cfi_def_cfa_offset 80
.Ltmp905:
	.cfi_offset %esi, -16
.Ltmp906:
	.cfi_offset %edi, -12
.Ltmp907:
	.cfi_offset %ebx, -8
	movl	80(%esp), %eax
	movl	%eax, 56(%esp)
	movl	84(%esp), %eax
	movl	%eax, 52(%esp)
	movl	88(%esp), %eax
	movl	%eax, 48(%esp)
	movl	56(%esp), %esi
	calll	_ZN2pp12_GLOBAL__N_113has_interfaceI17PPB_URLLoader_1_0EEbv
	testb	%al, %al
	jne	.LBB94_2
# BB#1:
	movl	48(%esp), %eax
	movl	%eax, (%esp)
	movl	$-6, 4(%esp)
	calll	_ZNK2pp18CompletionCallback8MayForceEi
	jmp	.LBB94_3
.LBB94_2:
	calll	_ZN2pp12_GLOBAL__N_113get_interfaceI17PPB_URLLoader_1_0EEPKT_v
	movl	8(%eax), %ebx
	movl	%esi, (%esp)
	calll	_ZNK2pp8Resource11pp_resourceEv
	movl	%eax, %esi
	movl	52(%esp), %eax
	movl	%eax, (%esp)
	calll	_ZNK2pp8Resource11pp_resourceEv
	movl	%eax, %edi
	movl	48(%esp), %eax
	movl	%eax, (%esp)
	calll	_ZNK2pp18CompletionCallback22pp_completion_callbackEv
	movl	8(%eax), %ecx
	movl	%ecx, 40(%esp)
	movsd	(%eax), %xmm0
	movsd	%xmm0, 32(%esp)
	movl	40(%esp), %eax
	movl	%eax, 16(%esp)
	movsd	32(%esp), %xmm0
	movsd	%xmm0, 8(%esp)
	movl	%edi, 4(%esp)
	movl	%esi, (%esp)
	calll	*%ebx
.LBB94_3:
	movl	%eax, 60(%esp)
	movl	60(%esp), %eax
	addl	$64, %esp
	popl	%esi
	popl	%edi
	popl	%ebx
	ret
.Ltmp908:
	.size	_ZN2pp9URLLoader4OpenERKNS_14URLRequestInfoERKNS_18CompletionCallbackE, .Ltmp908-_ZN2pp9URLLoader4OpenERKNS_14URLRequestInfoERKNS_18CompletionCallbackE
.Ltmp909:
	.cfi_endproc
.Leh_func_end94:

	.globl	_ZN2pp9URLLoader14FollowRedirectERKNS_18CompletionCallbackE
	.align	16, 0x90
	.type	_ZN2pp9URLLoader14FollowRedirectERKNS_18CompletionCallbackE,@function
_ZN2pp9URLLoader14FollowRedirectERKNS_18CompletionCallbackE: # @_ZN2pp9URLLoader14FollowRedirectERKNS_18CompletionCallbackE
.Ltmp913:
	.cfi_startproc
# BB#0:
	pushl	%edi
.Ltmp914:
	.cfi_def_cfa_offset 8
	pushl	%esi
.Ltmp915:
	.cfi_def_cfa_offset 12
	subl	$52, %esp
.Ltmp916:
	.cfi_def_cfa_offset 64
.Ltmp917:
	.cfi_offset %esi, -12
.Ltmp918:
	.cfi_offset %edi, -8
	movl	64(%esp), %eax
	movl	%eax, 44(%esp)
	movl	68(%esp), %eax
	movl	%eax, 40(%esp)
	movl	44(%esp), %esi
	calll	_ZN2pp12_GLOBAL__N_113has_interfaceI17PPB_URLLoader_1_0EEbv
	testb	%al, %al
	jne	.LBB95_2
# BB#1:
	movl	40(%esp), %eax
	movl	%eax, (%esp)
	movl	$-6, 4(%esp)
	calll	_ZNK2pp18CompletionCallback8MayForceEi
	jmp	.LBB95_3
.LBB95_2:
	calll	_ZN2pp12_GLOBAL__N_113get_interfaceI17PPB_URLLoader_1_0EEPKT_v
	movl	12(%eax), %edi
	movl	%esi, (%esp)
	calll	_ZNK2pp8Resource11pp_resourceEv
	movl	%eax, %esi
	movl	40(%esp), %eax
	movl	%eax, (%esp)
	calll	_ZNK2pp18CompletionCallback22pp_completion_callbackEv
	movl	8(%eax), %ecx
	movl	%ecx, 32(%esp)
	movsd	(%eax), %xmm0
	movsd	%xmm0, 24(%esp)
	movl	32(%esp), %eax
	movl	%eax, 12(%esp)
	movsd	24(%esp), %xmm0
	movsd	%xmm0, 4(%esp)
	movl	%esi, (%esp)
	calll	*%edi
.LBB95_3:
	movl	%eax, 48(%esp)
	movl	48(%esp), %eax
	addl	$52, %esp
	popl	%esi
	popl	%edi
	ret
.Ltmp919:
	.size	_ZN2pp9URLLoader14FollowRedirectERKNS_18CompletionCallbackE, .Ltmp919-_ZN2pp9URLLoader14FollowRedirectERKNS_18CompletionCallbackE
.Ltmp920:
	.cfi_endproc
.Leh_func_end95:

	.globl	_ZNK2pp9URLLoader17GetUploadProgressEPxS1_
	.align	16, 0x90
	.type	_ZNK2pp9URLLoader17GetUploadProgressEPxS1_,@function
_ZNK2pp9URLLoader17GetUploadProgressEPxS1_: # @_ZNK2pp9URLLoader17GetUploadProgressEPxS1_
.Ltmp924:
	.cfi_startproc
# BB#0:
	pushl	%edi
.Ltmp925:
	.cfi_def_cfa_offset 8
	pushl	%esi
.Ltmp926:
	.cfi_def_cfa_offset 12
	subl	$36, %esp
.Ltmp927:
	.cfi_def_cfa_offset 48
.Ltmp928:
	.cfi_offset %esi, -12
.Ltmp929:
	.cfi_offset %edi, -8
	movl	48(%esp), %eax
	movl	%eax, 28(%esp)
	movl	52(%esp), %eax
	movl	%eax, 24(%esp)
	movl	56(%esp), %eax
	movl	%eax, 20(%esp)
	movl	28(%esp), %esi
	calll	_ZN2pp12_GLOBAL__N_113has_interfaceI17PPB_URLLoader_1_0EEbv
	testb	%al, %al
	jne	.LBB96_2
# BB#1:
	movb	$0, 35(%esp)
	jmp	.LBB96_3
.LBB96_2:
	calll	_ZN2pp12_GLOBAL__N_113get_interfaceI17PPB_URLLoader_1_0EEPKT_v
	movl	16(%eax), %edi
	movl	%esi, (%esp)
	calll	_ZNK2pp8Resource11pp_resourceEv
	movl	24(%esp), %ecx
	movl	20(%esp), %edx
	movl	%edx, 8(%esp)
	movl	%ecx, 4(%esp)
	movl	%eax, (%esp)
	calll	*%edi
	movl	%eax, (%esp)
	calll	_Z9PP_ToBool7PP_Bool
	movb	%al, 35(%esp)
.LBB96_3:
	movzbl	35(%esp), %eax
	addl	$36, %esp
	popl	%esi
	popl	%edi
	ret
.Ltmp930:
	.size	_ZNK2pp9URLLoader17GetUploadProgressEPxS1_, .Ltmp930-_ZNK2pp9URLLoader17GetUploadProgressEPxS1_
.Ltmp931:
	.cfi_endproc
.Leh_func_end96:

	.globl	_ZNK2pp9URLLoader19GetDownloadProgressEPxS1_
	.align	16, 0x90
	.type	_ZNK2pp9URLLoader19GetDownloadProgressEPxS1_,@function
_ZNK2pp9URLLoader19GetDownloadProgressEPxS1_: # @_ZNK2pp9URLLoader19GetDownloadProgressEPxS1_
.Ltmp935:
	.cfi_startproc
# BB#0:
	pushl	%edi
.Ltmp936:
	.cfi_def_cfa_offset 8
	pushl	%esi
.Ltmp937:
	.cfi_def_cfa_offset 12
	subl	$36, %esp
.Ltmp938:
	.cfi_def_cfa_offset 48
.Ltmp939:
	.cfi_offset %esi, -12
.Ltmp940:
	.cfi_offset %edi, -8
	movl	48(%esp), %eax
	movl	%eax, 28(%esp)
	movl	52(%esp), %eax
	movl	%eax, 24(%esp)
	movl	56(%esp), %eax
	movl	%eax, 20(%esp)
	movl	28(%esp), %esi
	calll	_ZN2pp12_GLOBAL__N_113has_interfaceI17PPB_URLLoader_1_0EEbv
	testb	%al, %al
	jne	.LBB97_2
# BB#1:
	movb	$0, 35(%esp)
	jmp	.LBB97_3
.LBB97_2:
	calll	_ZN2pp12_GLOBAL__N_113get_interfaceI17PPB_URLLoader_1_0EEPKT_v
	movl	20(%eax), %edi
	movl	%esi, (%esp)
	calll	_ZNK2pp8Resource11pp_resourceEv
	movl	24(%esp), %ecx
	movl	20(%esp), %edx
	movl	%edx, 8(%esp)
	movl	%ecx, 4(%esp)
	movl	%eax, (%esp)
	calll	*%edi
	movl	%eax, (%esp)
	calll	_Z9PP_ToBool7PP_Bool
	movb	%al, 35(%esp)
.LBB97_3:
	movzbl	35(%esp), %eax
	addl	$36, %esp
	popl	%esi
	popl	%edi
	ret
.Ltmp941:
	.size	_ZNK2pp9URLLoader19GetDownloadProgressEPxS1_, .Ltmp941-_ZNK2pp9URLLoader19GetDownloadProgressEPxS1_
.Ltmp942:
	.cfi_endproc
.Leh_func_end97:

	.globl	_ZNK2pp9URLLoader15GetResponseInfoEv
	.align	16, 0x90
	.type	_ZNK2pp9URLLoader15GetResponseInfoEv,@function
_ZNK2pp9URLLoader15GetResponseInfoEv:   # @_ZNK2pp9URLLoader15GetResponseInfoEv
.Ltmp947:
	.cfi_startproc
# BB#0:
	pushl	%ebx
.Ltmp948:
	.cfi_def_cfa_offset 8
	pushl	%edi
.Ltmp949:
	.cfi_def_cfa_offset 12
	pushl	%esi
.Ltmp950:
	.cfi_def_cfa_offset 16
	subl	$16, %esp
.Ltmp951:
	.cfi_def_cfa_offset 32
.Ltmp952:
	.cfi_offset %esi, -16
.Ltmp953:
	.cfi_offset %edi, -12
.Ltmp954:
	.cfi_offset %ebx, -8
	movl	36(%esp), %edi
	movl	%edi, 12(%esp)
	calll	_ZN2pp12_GLOBAL__N_113has_interfaceI17PPB_URLLoader_1_0EEbv
	movl	32(%esp), %esi
	testb	%al, %al
	jne	.LBB98_2
# BB#1:
	movl	%esi, (%esp)
	calll	_ZN2pp15URLResponseInfoC1Ev
	jmp	.LBB98_3
.LBB98_2:
	calll	_ZN2pp12_GLOBAL__N_113get_interfaceI17PPB_URLLoader_1_0EEPKT_v
	movl	24(%eax), %ebx
	movl	%edi, (%esp)
	calll	_ZNK2pp8Resource11pp_resourceEv
	movl	%eax, (%esp)
	calll	*%ebx
	movl	%eax, 8(%esp)
	movl	%esi, (%esp)
	movl	$0, 4(%esp)
	calll	_ZN2pp15URLResponseInfoC1ENS_7PassRefEi
.LBB98_3:
	addl	$16, %esp
	popl	%esi
	popl	%edi
	popl	%ebx
	ret	$4
.Ltmp955:
	.size	_ZNK2pp9URLLoader15GetResponseInfoEv, .Ltmp955-_ZNK2pp9URLLoader15GetResponseInfoEv
.Ltmp956:
	.cfi_endproc
.Leh_func_end98:

	.section	.text._ZN2pp15URLResponseInfoC1Ev,"axG",@progbits,_ZN2pp15URLResponseInfoC1Ev,comdat
	.weak	_ZN2pp15URLResponseInfoC1Ev
	.align	16, 0x90
	.type	_ZN2pp15URLResponseInfoC1Ev,@function
_ZN2pp15URLResponseInfoC1Ev:            # @_ZN2pp15URLResponseInfoC1Ev
.Ltmp958:
	.cfi_startproc
# BB#0:
	subl	$12, %esp
.Ltmp959:
	.cfi_def_cfa_offset 16
	movl	16(%esp), %eax
	movl	%eax, 8(%esp)
	movl	%eax, (%esp)
	calll	_ZN2pp15URLResponseInfoC2Ev
	addl	$12, %esp
	ret
.Ltmp960:
	.size	_ZN2pp15URLResponseInfoC1Ev, .Ltmp960-_ZN2pp15URLResponseInfoC1Ev
.Ltmp961:
	.cfi_endproc
.Leh_func_end99:

	.text
	.globl	_ZN2pp9URLLoader16ReadResponseBodyEPviRKNS_18CompletionCallbackE
	.align	16, 0x90
	.type	_ZN2pp9URLLoader16ReadResponseBodyEPviRKNS_18CompletionCallbackE,@function
_ZN2pp9URLLoader16ReadResponseBodyEPviRKNS_18CompletionCallbackE: # @_ZN2pp9URLLoader16ReadResponseBodyEPviRKNS_18CompletionCallbackE
.Ltmp967:
	.cfi_startproc
# BB#0:
	pushl	%ebp
.Ltmp968:
	.cfi_def_cfa_offset 8
	pushl	%ebx
.Ltmp969:
	.cfi_def_cfa_offset 12
	pushl	%edi
.Ltmp970:
	.cfi_def_cfa_offset 16
	pushl	%esi
.Ltmp971:
	.cfi_def_cfa_offset 20
	subl	$60, %esp
.Ltmp972:
	.cfi_def_cfa_offset 80
.Ltmp973:
	.cfi_offset %esi, -20
.Ltmp974:
	.cfi_offset %edi, -16
.Ltmp975:
	.cfi_offset %ebx, -12
.Ltmp976:
	.cfi_offset %ebp, -8
	movl	80(%esp), %eax
	movl	%eax, 52(%esp)
	movl	84(%esp), %eax
	movl	%eax, 48(%esp)
	movl	88(%esp), %eax
	movl	%eax, 44(%esp)
	movl	92(%esp), %eax
	movl	%eax, 40(%esp)
	movl	52(%esp), %esi
	calll	_ZN2pp12_GLOBAL__N_113has_interfaceI17PPB_URLLoader_1_0EEbv
	testb	%al, %al
	jne	.LBB100_2
# BB#1:
	movl	40(%esp), %eax
	movl	%eax, (%esp)
	movl	$-6, 4(%esp)
	calll	_ZNK2pp18CompletionCallback8MayForceEi
	jmp	.LBB100_3
.LBB100_2:
	calll	_ZN2pp12_GLOBAL__N_113get_interfaceI17PPB_URLLoader_1_0EEPKT_v
	movl	28(%eax), %edi
	movl	%esi, (%esp)
	calll	_ZNK2pp8Resource11pp_resourceEv
	movl	%eax, %esi
	movl	48(%esp), %ebx
	movl	44(%esp), %ebp
	movl	40(%esp), %eax
	movl	%eax, (%esp)
	calll	_ZNK2pp18CompletionCallback22pp_completion_callbackEv
	movl	8(%eax), %ecx
	movl	%ecx, 32(%esp)
	movsd	(%eax), %xmm0
	movsd	%xmm0, 24(%esp)
	movl	32(%esp), %eax
	movl	%eax, 20(%esp)
	movsd	24(%esp), %xmm0
	movsd	%xmm0, 12(%esp)
	movl	%ebp, 8(%esp)
	movl	%ebx, 4(%esp)
	movl	%esi, (%esp)
	calll	*%edi
.LBB100_3:
	movl	%eax, 56(%esp)
	movl	56(%esp), %eax
	addl	$60, %esp
	popl	%esi
	popl	%edi
	popl	%ebx
	popl	%ebp
	ret
.Ltmp977:
	.size	_ZN2pp9URLLoader16ReadResponseBodyEPviRKNS_18CompletionCallbackE, .Ltmp977-_ZN2pp9URLLoader16ReadResponseBodyEPviRKNS_18CompletionCallbackE
.Ltmp978:
	.cfi_endproc
.Leh_func_end100:

	.globl	_ZN2pp9URLLoader21FinishStreamingToFileERKNS_18CompletionCallbackE
	.align	16, 0x90
	.type	_ZN2pp9URLLoader21FinishStreamingToFileERKNS_18CompletionCallbackE,@function
_ZN2pp9URLLoader21FinishStreamingToFileERKNS_18CompletionCallbackE: # @_ZN2pp9URLLoader21FinishStreamingToFileERKNS_18CompletionCallbackE
.Ltmp982:
	.cfi_startproc
# BB#0:
	pushl	%edi
.Ltmp983:
	.cfi_def_cfa_offset 8
	pushl	%esi
.Ltmp984:
	.cfi_def_cfa_offset 12
	subl	$52, %esp
.Ltmp985:
	.cfi_def_cfa_offset 64
.Ltmp986:
	.cfi_offset %esi, -12
.Ltmp987:
	.cfi_offset %edi, -8
	movl	64(%esp), %eax
	movl	%eax, 44(%esp)
	movl	68(%esp), %eax
	movl	%eax, 40(%esp)
	movl	44(%esp), %esi
	calll	_ZN2pp12_GLOBAL__N_113has_interfaceI17PPB_URLLoader_1_0EEbv
	testb	%al, %al
	jne	.LBB101_2
# BB#1:
	movl	40(%esp), %eax
	movl	%eax, (%esp)
	movl	$-6, 4(%esp)
	calll	_ZNK2pp18CompletionCallback8MayForceEi
	jmp	.LBB101_3
.LBB101_2:
	calll	_ZN2pp12_GLOBAL__N_113get_interfaceI17PPB_URLLoader_1_0EEPKT_v
	movl	32(%eax), %edi
	movl	%esi, (%esp)
	calll	_ZNK2pp8Resource11pp_resourceEv
	movl	%eax, %esi
	movl	40(%esp), %eax
	movl	%eax, (%esp)
	calll	_ZNK2pp18CompletionCallback22pp_completion_callbackEv
	movl	8(%eax), %ecx
	movl	%ecx, 32(%esp)
	movsd	(%eax), %xmm0
	movsd	%xmm0, 24(%esp)
	movl	32(%esp), %eax
	movl	%eax, 12(%esp)
	movsd	24(%esp), %xmm0
	movsd	%xmm0, 4(%esp)
	movl	%esi, (%esp)
	calll	*%edi
.LBB101_3:
	movl	%eax, 48(%esp)
	movl	48(%esp), %eax
	addl	$52, %esp
	popl	%esi
	popl	%edi
	ret
.Ltmp988:
	.size	_ZN2pp9URLLoader21FinishStreamingToFileERKNS_18CompletionCallbackE, .Ltmp988-_ZN2pp9URLLoader21FinishStreamingToFileERKNS_18CompletionCallbackE
.Ltmp989:
	.cfi_endproc
.Leh_func_end101:

	.globl	_ZN2pp9URLLoader5CloseEv
	.align	16, 0x90
	.type	_ZN2pp9URLLoader5CloseEv,@function
_ZN2pp9URLLoader5CloseEv:               # @_ZN2pp9URLLoader5CloseEv
.Ltmp993:
	.cfi_startproc
# BB#0:
	pushl	%edi
.Ltmp994:
	.cfi_def_cfa_offset 8
	pushl	%esi
.Ltmp995:
	.cfi_def_cfa_offset 12
	subl	$20, %esp
.Ltmp996:
	.cfi_def_cfa_offset 32
.Ltmp997:
	.cfi_offset %esi, -12
.Ltmp998:
	.cfi_offset %edi, -8
	movl	32(%esp), %esi
	movl	%esi, 16(%esp)
	calll	_ZN2pp12_GLOBAL__N_113has_interfaceI17PPB_URLLoader_1_0EEbv
	testb	%al, %al
	je	.LBB102_2
# BB#1:
	calll	_ZN2pp12_GLOBAL__N_113get_interfaceI17PPB_URLLoader_1_0EEPKT_v
	movl	36(%eax), %edi
	movl	%esi, (%esp)
	calll	_ZNK2pp8Resource11pp_resourceEv
	movl	%eax, (%esp)
	calll	*%edi
.LBB102_2:
	addl	$20, %esp
	popl	%esi
	popl	%edi
	ret
.Ltmp999:
	.size	_ZN2pp9URLLoader5CloseEv, .Ltmp999-_ZN2pp9URLLoader5CloseEv
.Ltmp1000:
	.cfi_endproc
.Leh_func_end102:

	.section	.text._ZN2pp9URLLoaderD1Ev,"axG",@progbits,_ZN2pp9URLLoaderD1Ev,comdat
	.weak	_ZN2pp9URLLoaderD1Ev
	.align	16, 0x90
	.type	_ZN2pp9URLLoaderD1Ev,@function
_ZN2pp9URLLoaderD1Ev:                   # @_ZN2pp9URLLoaderD1Ev
.Ltmp1002:
	.cfi_startproc
# BB#0:
	subl	$12, %esp
.Ltmp1003:
	.cfi_def_cfa_offset 16
	movl	16(%esp), %eax
	movl	%eax, 8(%esp)
	movl	%eax, (%esp)
	calll	_ZN2pp9URLLoaderD2Ev
	addl	$12, %esp
	ret
.Ltmp1004:
	.size	_ZN2pp9URLLoaderD1Ev, .Ltmp1004-_ZN2pp9URLLoaderD1Ev
.Ltmp1005:
	.cfi_endproc
.Leh_func_end103:

	.section	.text._ZN2pp9URLLoaderD0Ev,"axG",@progbits,_ZN2pp9URLLoaderD0Ev,comdat
	.weak	_ZN2pp9URLLoaderD0Ev
	.align	16, 0x90
	.type	_ZN2pp9URLLoaderD0Ev,@function
_ZN2pp9URLLoaderD0Ev:                   # @_ZN2pp9URLLoaderD0Ev
.Ltmp1011:
	.cfi_startproc
	.cfi_personality 0, __gxx_personality_v0
.Leh_func_begin104:
	.cfi_lsda 0, .Lexception104
# BB#0:
	pushl	%esi
.Ltmp1012:
	.cfi_def_cfa_offset 8
	subl	$24, %esp
.Ltmp1013:
	.cfi_def_cfa_offset 32
.Ltmp1014:
	.cfi_offset %esi, -8
	movl	32(%esp), %esi
	movl	%esi, 20(%esp)
.Ltmp1006:
	movl	%esi, (%esp)
	calll	_ZN2pp9URLLoaderD1Ev
.Ltmp1007:
# BB#1:
	movl	%esi, (%esp)
	calll	_ZdlPv
	addl	$24, %esp
	popl	%esi
	ret
.LBB104_2:
.Ltmp1008:
	movl	%eax, 16(%esp)
	movl	%edx, 12(%esp)
	movl	%esi, (%esp)
	calll	_ZdlPv
	movl	16(%esp), %eax
	movl	%eax, (%esp)
	calll	_Unwind_Resume
.Ltmp1015:
	.size	_ZN2pp9URLLoaderD0Ev, .Ltmp1015-_ZN2pp9URLLoaderD0Ev
.Ltmp1016:
	.cfi_endproc
.Leh_func_end104:
	.section	.gcc_except_table,"a",@progbits
	.align	4
GCC_except_table104:
.Lexception104:
	.byte	255                     # @LPStart Encoding = omit
	.byte	0                       # @TType Encoding = absptr
	.byte	156                     # @TType base offset
	.zero	1
	.byte	3                       # Call site Encoding = udata4
	.byte	26                      # Call site table length
.Lset245 = .Ltmp1006-.Leh_func_begin104 # >> Call Site 1 <<
	.long	.Lset245
.Lset246 = .Ltmp1007-.Ltmp1006          #   Call between .Ltmp1006 and .Ltmp1007
	.long	.Lset246
.Lset247 = .Ltmp1008-.Leh_func_begin104 #     jumps to .Ltmp1008
	.long	.Lset247
	.byte	0                       #   On action: cleanup
.Lset248 = .Ltmp1007-.Leh_func_begin104 # >> Call Site 2 <<
	.long	.Lset248
.Lset249 = .Leh_func_end104-.Ltmp1007   #   Call between .Ltmp1007 and .Leh_func_end104
	.long	.Lset249
	.long	0                       #     has no landing pad
	.byte	0                       #   On action: cleanup
	.align	4

	.section	.text._ZN2pp9URLLoaderD2Ev,"axG",@progbits,_ZN2pp9URLLoaderD2Ev,comdat
	.weak	_ZN2pp9URLLoaderD2Ev
	.align	16, 0x90
	.type	_ZN2pp9URLLoaderD2Ev,@function
_ZN2pp9URLLoaderD2Ev:                   # @_ZN2pp9URLLoaderD2Ev
.Ltmp1018:
	.cfi_startproc
# BB#0:
	subl	$12, %esp
.Ltmp1019:
	.cfi_def_cfa_offset 16
	movl	16(%esp), %eax
	movl	%eax, 8(%esp)
	movl	%eax, (%esp)
	calll	_ZN2pp8ResourceD2Ev
	addl	$12, %esp
	ret
.Ltmp1020:
	.size	_ZN2pp9URLLoaderD2Ev, .Ltmp1020-_ZN2pp9URLLoaderD2Ev
.Ltmp1021:
	.cfi_endproc
.Leh_func_end105:

	.text
	.align	16, 0x90
	.type	_ZN2pp12_GLOBAL__N_114interface_nameI17PPB_URLLoader_1_0EEPKcv,@function
_ZN2pp12_GLOBAL__N_114interface_nameI17PPB_URLLoader_1_0EEPKcv: # @_ZN2pp12_GLOBAL__N_114interface_nameI17PPB_URLLoader_1_0EEPKcv
# BB#0:
	movl	$.L.str16, %eax
	ret
.Ltmp1022:
	.size	_ZN2pp12_GLOBAL__N_114interface_nameI17PPB_URLLoader_1_0EEPKcv, .Ltmp1022-_ZN2pp12_GLOBAL__N_114interface_nameI17PPB_URLLoader_1_0EEPKcv

	.section	.text._ZN2pp15URLResponseInfoC2Ev,"axG",@progbits,_ZN2pp15URLResponseInfoC2Ev,comdat
	.weak	_ZN2pp15URLResponseInfoC2Ev
	.align	16, 0x90
	.type	_ZN2pp15URLResponseInfoC2Ev,@function
_ZN2pp15URLResponseInfoC2Ev:            # @_ZN2pp15URLResponseInfoC2Ev
.Ltmp1025:
	.cfi_startproc
# BB#0:
	pushl	%esi
.Ltmp1026:
	.cfi_def_cfa_offset 8
	subl	$8, %esp
.Ltmp1027:
	.cfi_def_cfa_offset 16
.Ltmp1028:
	.cfi_offset %esi, -8
	movl	16(%esp), %esi
	movl	%esi, 4(%esp)
	movl	%esi, (%esp)
	calll	_ZN2pp8ResourceC2Ev
	movl	$_ZTVN2pp15URLResponseInfoE+8, (%esi)
	addl	$8, %esp
	popl	%esi
	ret
.Ltmp1029:
	.size	_ZN2pp15URLResponseInfoC2Ev, .Ltmp1029-_ZN2pp15URLResponseInfoC2Ev
.Ltmp1030:
	.cfi_endproc
.Leh_func_end107:

	.section	.text._ZN2pp15URLResponseInfoD1Ev,"axG",@progbits,_ZN2pp15URLResponseInfoD1Ev,comdat
	.weak	_ZN2pp15URLResponseInfoD1Ev
	.align	16, 0x90
	.type	_ZN2pp15URLResponseInfoD1Ev,@function
_ZN2pp15URLResponseInfoD1Ev:            # @_ZN2pp15URLResponseInfoD1Ev
.Ltmp1032:
	.cfi_startproc
# BB#0:
	subl	$12, %esp
.Ltmp1033:
	.cfi_def_cfa_offset 16
	movl	16(%esp), %eax
	movl	%eax, 8(%esp)
	movl	%eax, (%esp)
	calll	_ZN2pp15URLResponseInfoD2Ev
	addl	$12, %esp
	ret
.Ltmp1034:
	.size	_ZN2pp15URLResponseInfoD1Ev, .Ltmp1034-_ZN2pp15URLResponseInfoD1Ev
.Ltmp1035:
	.cfi_endproc
.Leh_func_end108:

	.section	.text._ZN2pp15URLResponseInfoD0Ev,"axG",@progbits,_ZN2pp15URLResponseInfoD0Ev,comdat
	.weak	_ZN2pp15URLResponseInfoD0Ev
	.align	16, 0x90
	.type	_ZN2pp15URLResponseInfoD0Ev,@function
_ZN2pp15URLResponseInfoD0Ev:            # @_ZN2pp15URLResponseInfoD0Ev
.Ltmp1041:
	.cfi_startproc
	.cfi_personality 0, __gxx_personality_v0
.Leh_func_begin109:
	.cfi_lsda 0, .Lexception109
# BB#0:
	pushl	%esi
.Ltmp1042:
	.cfi_def_cfa_offset 8
	subl	$24, %esp
.Ltmp1043:
	.cfi_def_cfa_offset 32
.Ltmp1044:
	.cfi_offset %esi, -8
	movl	32(%esp), %esi
	movl	%esi, 20(%esp)
.Ltmp1036:
	movl	%esi, (%esp)
	calll	_ZN2pp15URLResponseInfoD1Ev
.Ltmp1037:
# BB#1:
	movl	%esi, (%esp)
	calll	_ZdlPv
	addl	$24, %esp
	popl	%esi
	ret
.LBB109_2:
.Ltmp1038:
	movl	%eax, 16(%esp)
	movl	%edx, 12(%esp)
	movl	%esi, (%esp)
	calll	_ZdlPv
	movl	16(%esp), %eax
	movl	%eax, (%esp)
	calll	_Unwind_Resume
.Ltmp1045:
	.size	_ZN2pp15URLResponseInfoD0Ev, .Ltmp1045-_ZN2pp15URLResponseInfoD0Ev
.Ltmp1046:
	.cfi_endproc
.Leh_func_end109:
	.section	.gcc_except_table,"a",@progbits
	.align	4
GCC_except_table109:
.Lexception109:
	.byte	255                     # @LPStart Encoding = omit
	.byte	0                       # @TType Encoding = absptr
	.byte	156                     # @TType base offset
	.zero	1
	.byte	3                       # Call site Encoding = udata4
	.byte	26                      # Call site table length
.Lset250 = .Ltmp1036-.Leh_func_begin109 # >> Call Site 1 <<
	.long	.Lset250
.Lset251 = .Ltmp1037-.Ltmp1036          #   Call between .Ltmp1036 and .Ltmp1037
	.long	.Lset251
.Lset252 = .Ltmp1038-.Leh_func_begin109 #     jumps to .Ltmp1038
	.long	.Lset252
	.byte	0                       #   On action: cleanup
.Lset253 = .Ltmp1037-.Leh_func_begin109 # >> Call Site 2 <<
	.long	.Lset253
.Lset254 = .Leh_func_end109-.Ltmp1037   #   Call between .Ltmp1037 and .Leh_func_end109
	.long	.Lset254
	.long	0                       #     has no landing pad
	.byte	0                       #   On action: cleanup
	.align	4

	.section	.text._ZN2pp15URLResponseInfoD2Ev,"axG",@progbits,_ZN2pp15URLResponseInfoD2Ev,comdat
	.weak	_ZN2pp15URLResponseInfoD2Ev
	.align	16, 0x90
	.type	_ZN2pp15URLResponseInfoD2Ev,@function
_ZN2pp15URLResponseInfoD2Ev:            # @_ZN2pp15URLResponseInfoD2Ev
.Ltmp1048:
	.cfi_startproc
# BB#0:
	subl	$12, %esp
.Ltmp1049:
	.cfi_def_cfa_offset 16
	movl	16(%esp), %eax
	movl	%eax, 8(%esp)
	movl	%eax, (%esp)
	calll	_ZN2pp8ResourceD2Ev
	addl	$12, %esp
	ret
.Ltmp1050:
	.size	_ZN2pp15URLResponseInfoD2Ev, .Ltmp1050-_ZN2pp15URLResponseInfoD2Ev
.Ltmp1051:
	.cfi_endproc
.Leh_func_end110:

	.text
	.globl	_ZN2pp6Module3GetEv
	.align	16, 0x90
	.type	_ZN2pp6Module3GetEv,@function
_ZN2pp6Module3GetEv:                    # @_ZN2pp6Module3GetEv
# BB#0:
	movl	_ZL18g_module_singleton, %eax
	ret
.Ltmp1052:
	.size	_ZN2pp6Module3GetEv, .Ltmp1052-_ZN2pp6Module3GetEv

	.globl	_ZN2pp25SetBrokerGetInterfaceFuncEPFPKvPKcE
	.align	16, 0x90
	.type	_ZN2pp25SetBrokerGetInterfaceFuncEPFPKvPKcE,@function
_ZN2pp25SetBrokerGetInterfaceFuncEPFPKvPKcE: # @_ZN2pp25SetBrokerGetInterfaceFuncEPFPKvPKcE
# BB#0:
	pushl	%eax
	movl	8(%esp), %eax
	movl	%eax, (%esp)
	movl	%eax, _ZL22g_broker_get_interface
	popl	%eax
	ret
.Ltmp1053:
	.size	_ZN2pp25SetBrokerGetInterfaceFuncEPFPKvPKcE, .Ltmp1053-_ZN2pp25SetBrokerGetInterfaceFuncEPFPKvPKcE

	.globl	PPP_InitializeModule
	.align	16, 0x90
	.type	PPP_InitializeModule,@function
PPP_InitializeModule:                   # @PPP_InitializeModule
.Ltmp1055:
	.cfi_startproc
# BB#0:
	subl	$28, %esp
.Ltmp1056:
	.cfi_def_cfa_offset 32
	movl	32(%esp), %eax
	movl	%eax, 20(%esp)
	movl	36(%esp), %eax
	movl	%eax, 16(%esp)
	calll	_ZN2pp12CreateModuleEv
	movl	%eax, 12(%esp)
	testl	%eax, %eax
	jne	.LBB113_2
# BB#1:
	movl	$-2, 24(%esp)
	jmp	.LBB113_7
.LBB113_2:
	movl	12(%esp), %eax
	movl	20(%esp), %ecx
	movl	16(%esp), %edx
	movl	%edx, 8(%esp)
	movl	%ecx, 4(%esp)
	movl	%eax, (%esp)
	calll	_ZN2pp6Module12InternalInitEiPFPKvPKcE
	testb	%al, %al
	jne	.LBB113_6
# BB#3:
	movl	12(%esp), %eax
	testl	%eax, %eax
	je	.LBB113_5
# BB#4:
	movl	(%eax), %ecx
	movl	%eax, (%esp)
	calll	*4(%ecx)
.LBB113_5:
	movl	$-2, 24(%esp)
	jmp	.LBB113_7
.LBB113_6:
	movl	12(%esp), %eax
	movl	%eax, _ZL18g_module_singleton
	movl	$0, 24(%esp)
.LBB113_7:
	movl	24(%esp), %eax
	addl	$28, %esp
	ret
.Ltmp1057:
	.size	PPP_InitializeModule, .Ltmp1057-PPP_InitializeModule
.Ltmp1058:
	.cfi_endproc
.Leh_func_end113:

	.globl	PPP_ShutdownModule
	.align	16, 0x90
	.type	PPP_ShutdownModule,@function
PPP_ShutdownModule:                     # @PPP_ShutdownModule
.Ltmp1060:
	.cfi_startproc
# BB#0:
	subl	$12, %esp
.Ltmp1061:
	.cfi_def_cfa_offset 16
	movl	_ZL18g_module_singleton, %eax
	testl	%eax, %eax
	je	.LBB114_2
# BB#1:
	movl	(%eax), %ecx
	movl	%eax, (%esp)
	calll	*4(%ecx)
.LBB114_2:
	movl	$0, _ZL18g_module_singleton
	addl	$12, %esp
	ret
.Ltmp1062:
	.size	PPP_ShutdownModule, .Ltmp1062-PPP_ShutdownModule
.Ltmp1063:
	.cfi_endproc
.Leh_func_end114:

	.globl	PPP_GetInterface
	.align	16, 0x90
	.type	PPP_GetInterface,@function
PPP_GetInterface:                       # @PPP_GetInterface
.Ltmp1065:
	.cfi_startproc
# BB#0:
	subl	$28, %esp
.Ltmp1066:
	.cfi_def_cfa_offset 32
	movl	32(%esp), %eax
	movl	%eax, 20(%esp)
	cmpl	$0, _ZL18g_module_singleton
	je	.LBB115_2
# BB#1:
	movl	_ZL18g_module_singleton, %eax
	movl	20(%esp), %ecx
	movl	%ecx, 4(%esp)
	movl	%eax, (%esp)
	calll	_ZN2pp6Module18GetPluginInterfaceEPKc
	movl	%eax, 24(%esp)
	jmp	.LBB115_5
.LBB115_2:
	cmpl	$0, _ZL22g_broker_get_interface
	je	.LBB115_4
# BB#3:
	movl	20(%esp), %eax
	movl	%eax, (%esp)
	calll	*_ZL22g_broker_get_interface
	movl	%eax, 24(%esp)
	jmp	.LBB115_5
.LBB115_4:
	movl	$0, 24(%esp)
.LBB115_5:
	movl	24(%esp), %eax
	addl	$28, %esp
	ret
.Ltmp1067:
	.size	PPP_GetInterface, .Ltmp1067-PPP_GetInterface
.Ltmp1068:
	.cfi_endproc
.Leh_func_end115:

	.globl	_ZN2pp14VarArrayBufferC2ERKNS_3VarE
	.align	16, 0x90
	.type	_ZN2pp14VarArrayBufferC2ERKNS_3VarE,@function
_ZN2pp14VarArrayBufferC2ERKNS_3VarE:    # @_ZN2pp14VarArrayBufferC2ERKNS_3VarE
.Ltmp1077:
	.cfi_startproc
	.cfi_personality 0, __gxx_personality_v0
.Leh_func_begin116:
	.cfi_lsda 0, .Lexception116
# BB#0:
	pushl	%esi
.Ltmp1078:
	.cfi_def_cfa_offset 8
	subl	$40, %esp
.Ltmp1079:
	.cfi_def_cfa_offset 48
.Ltmp1080:
	.cfi_offset %esi, -8
	movl	48(%esp), %eax
	movl	%eax, 36(%esp)
	movl	52(%esp), %eax
	movl	%eax, 32(%esp)
	movl	36(%esp), %esi
	movl	%eax, 4(%esp)
	movl	%esi, (%esp)
	calll	_ZN2pp3VarC2ERKS0_
	movl	$_ZTVN2pp14VarArrayBufferE+8, (%esi)
	movl	32(%esp), %eax
.Ltmp1069:
	movl	%eax, (%esp)
	calll	_ZNK2pp3Var15is_array_bufferEv
.Ltmp1070:
# BB#1:
	testb	%al, %al
	je	.LBB116_6
# BB#2:
	addl	$40, %esp
	popl	%esi
	ret
.LBB116_3:
.Ltmp1071:
	movl	%eax, 28(%esp)
	movl	%edx, 24(%esp)
.Ltmp1072:
	movl	%esi, (%esp)
	calll	_ZN2pp3VarD2Ev
.Ltmp1073:
# BB#4:
	movl	28(%esp), %eax
	movl	%eax, (%esp)
	calll	_Unwind_Resume
.LBB116_5:
.Ltmp1074:
	calll	_ZSt9terminatev
.LBB116_6:
	movl	$.L__PRETTY_FUNCTION__._ZN2pp14VarArrayBufferC2ERKNS_3VarE, 12(%esp)
	movl	$25, 8(%esp)
	movl	$.L.str120, 4(%esp)
	movl	$.L.str19, (%esp)
	calll	__assert_fail
.Ltmp1081:
	.size	_ZN2pp14VarArrayBufferC2ERKNS_3VarE, .Ltmp1081-_ZN2pp14VarArrayBufferC2ERKNS_3VarE
.Ltmp1082:
	.cfi_endproc
.Leh_func_end116:
	.section	.gcc_except_table,"a",@progbits
	.align	4
GCC_except_table116:
.Lexception116:
	.byte	255                     # @LPStart Encoding = omit
	.byte	0                       # @TType Encoding = absptr
	.byte	188                     # @TType base offset
	.zero	1
	.byte	3                       # Call site Encoding = udata4
	.byte	52                      # Call site table length
.Lset255 = .Leh_func_begin116-.Leh_func_begin116 # >> Call Site 1 <<
	.long	.Lset255
.Lset256 = .Ltmp1069-.Leh_func_begin116 #   Call between .Leh_func_begin116 and .Ltmp1069
	.long	.Lset256
	.long	0                       #     has no landing pad
	.byte	0                       #   On action: cleanup
.Lset257 = .Ltmp1069-.Leh_func_begin116 # >> Call Site 2 <<
	.long	.Lset257
.Lset258 = .Ltmp1070-.Ltmp1069          #   Call between .Ltmp1069 and .Ltmp1070
	.long	.Lset258
.Lset259 = .Ltmp1071-.Leh_func_begin116 #     jumps to .Ltmp1071
	.long	.Lset259
	.byte	0                       #   On action: cleanup
.Lset260 = .Ltmp1072-.Leh_func_begin116 # >> Call Site 3 <<
	.long	.Lset260
.Lset261 = .Ltmp1073-.Ltmp1072          #   Call between .Ltmp1072 and .Ltmp1073
	.long	.Lset261
.Lset262 = .Ltmp1074-.Leh_func_begin116 #     jumps to .Ltmp1074
	.long	.Lset262
	.byte	1                       #   On action: 1
.Lset263 = .Ltmp1073-.Leh_func_begin116 # >> Call Site 4 <<
	.long	.Lset263
.Lset264 = .Leh_func_end116-.Ltmp1073   #   Call between .Ltmp1073 and .Leh_func_end116
	.long	.Lset264
	.long	0                       #     has no landing pad
	.byte	0                       #   On action: cleanup
	.byte	1                       # >> Action Record 1 <<
                                        #   Catch TypeInfo 1
	.byte	0                       #   No further actions
                                        # >> Catch TypeInfos <<
	.long	0                       # TypeInfo 1
	.align	4

	.section	.text._ZNK2pp3Var15is_array_bufferEv,"axG",@progbits,_ZNK2pp3Var15is_array_bufferEv,comdat
	.weak	_ZNK2pp3Var15is_array_bufferEv
	.align	16, 0x90
	.type	_ZNK2pp3Var15is_array_bufferEv,@function
_ZNK2pp3Var15is_array_bufferEv:         # @_ZNK2pp3Var15is_array_bufferEv
# BB#0:
	pushl	%eax
	movl	8(%esp), %eax
	movl	%eax, (%esp)
	cmpl	$9, 4(%eax)
	sete	%al
	movzbl	%al, %eax
	popl	%edx
	ret
.Ltmp1083:
	.size	_ZNK2pp3Var15is_array_bufferEv, .Ltmp1083-_ZNK2pp3Var15is_array_bufferEv

	.text
	.globl	_ZN2pp14VarArrayBufferC2Ej
	.align	16, 0x90
	.type	_ZN2pp14VarArrayBufferC2Ej,@function
_ZN2pp14VarArrayBufferC2Ej:             # @_ZN2pp14VarArrayBufferC2Ej
.Ltmp1096:
	.cfi_startproc
	.cfi_personality 0, __gxx_personality_v0
.Leh_func_begin118:
	.cfi_lsda 0, .Lexception118
# BB#0:
	pushl	%esi
.Ltmp1097:
	.cfi_def_cfa_offset 8
	subl	$56, %esp
.Ltmp1098:
	.cfi_def_cfa_offset 64
.Ltmp1099:
	.cfi_offset %esi, -8
	movl	64(%esp), %eax
	movl	%eax, 52(%esp)
	movl	68(%esp), %eax
	movl	%eax, 48(%esp)
	movl	52(%esp), %esi
	movl	%esi, (%esp)
	calll	_ZN2pp3VarC2Ev
	movl	$_ZTVN2pp14VarArrayBufferE+8, (%esi)
.Ltmp1084:
	calll	_ZN2pp12_GLOBAL__N_113has_interfaceI22PPB_VarArrayBuffer_1_0EEbv
.Ltmp1085:
# BB#1:
	cmpb	$1, %al
	jne	.LBB118_7
# BB#2:
.Ltmp1086:
	calll	_ZN2pp12_GLOBAL__N_113get_interfaceI22PPB_VarArrayBuffer_1_0EEPKT_v
.Ltmp1087:
# BB#3:
	movl	(%eax), %eax
	movl	48(%esp), %ecx
.Ltmp1088:
	movl	%ecx, 4(%esp)
	leal	24(%esp), %ecx
	movl	%ecx, (%esp)
	calll	*%eax
	subl	$4, %esp
.Ltmp1089:
# BB#4:
	leal	4(%esi), %eax
	movsd	24(%esp), %xmm0
	movsd	32(%esp), %xmm1
	movsd	%xmm1, 8(%eax)
	movsd	%xmm0, (%eax)
	movb	$1, 20(%esi)
	addl	$56, %esp
	popl	%esi
	ret
.LBB118_5:
.Ltmp1090:
	movl	%eax, 44(%esp)
	movl	%edx, 40(%esp)
.Ltmp1091:
	movl	%esi, (%esp)
	calll	_ZN2pp3VarD2Ev
.Ltmp1092:
# BB#6:
	movl	44(%esp), %eax
	movl	%eax, (%esp)
	calll	_Unwind_Resume
.LBB118_7:
	movl	$.L__PRETTY_FUNCTION__._ZN2pp14VarArrayBufferC2Ej, 12(%esp)
	movl	$34, 8(%esp)
	movl	$.L.str120, 4(%esp)
	movl	$.L.str19, (%esp)
	calll	__assert_fail
.LBB118_8:
.Ltmp1093:
	calll	_ZSt9terminatev
.Ltmp1100:
	.size	_ZN2pp14VarArrayBufferC2Ej, .Ltmp1100-_ZN2pp14VarArrayBufferC2Ej
.Ltmp1101:
	.cfi_endproc
.Leh_func_end118:
	.section	.gcc_except_table,"a",@progbits
	.align	4
GCC_except_table118:
.Lexception118:
	.byte	255                     # @LPStart Encoding = omit
	.byte	0                       # @TType Encoding = absptr
	.byte	175                     # @TType base offset
	.zero	1,128
	.zero	1
	.byte	3                       # Call site Encoding = udata4
	.byte	39                      # Call site table length
.Lset265 = .Ltmp1084-.Leh_func_begin118 # >> Call Site 1 <<
	.long	.Lset265
.Lset266 = .Ltmp1089-.Ltmp1084          #   Call between .Ltmp1084 and .Ltmp1089
	.long	.Lset266
.Lset267 = .Ltmp1090-.Leh_func_begin118 #     jumps to .Ltmp1090
	.long	.Lset267
	.byte	0                       #   On action: cleanup
.Lset268 = .Ltmp1091-.Leh_func_begin118 # >> Call Site 2 <<
	.long	.Lset268
.Lset269 = .Ltmp1092-.Ltmp1091          #   Call between .Ltmp1091 and .Ltmp1092
	.long	.Lset269
.Lset270 = .Ltmp1093-.Leh_func_begin118 #     jumps to .Ltmp1093
	.long	.Lset270
	.byte	1                       #   On action: 1
.Lset271 = .Ltmp1092-.Leh_func_begin118 # >> Call Site 3 <<
	.long	.Lset271
.Lset272 = .Leh_func_end118-.Ltmp1092   #   Call between .Ltmp1092 and .Leh_func_end118
	.long	.Lset272
	.long	0                       #     has no landing pad
	.byte	0                       #   On action: cleanup
	.byte	1                       # >> Action Record 1 <<
                                        #   Catch TypeInfo 1
	.byte	0                       #   No further actions
                                        # >> Catch TypeInfos <<
	.long	0                       # TypeInfo 1
	.align	4

	.text
	.align	16, 0x90
	.type	_ZN2pp12_GLOBAL__N_113has_interfaceI22PPB_VarArrayBuffer_1_0EEbv,@function
_ZN2pp12_GLOBAL__N_113has_interfaceI22PPB_VarArrayBuffer_1_0EEbv: # @_ZN2pp12_GLOBAL__N_113has_interfaceI22PPB_VarArrayBuffer_1_0EEbv
.Ltmp1103:
	.cfi_startproc
# BB#0:
	subl	$12, %esp
.Ltmp1104:
	.cfi_def_cfa_offset 16
	calll	_ZN2pp12_GLOBAL__N_113get_interfaceI22PPB_VarArrayBuffer_1_0EEPKT_v
	testl	%eax, %eax
	setne	%al
	movzbl	%al, %eax
	addl	$12, %esp
	ret
.Ltmp1105:
	.size	_ZN2pp12_GLOBAL__N_113has_interfaceI22PPB_VarArrayBuffer_1_0EEbv, .Ltmp1105-_ZN2pp12_GLOBAL__N_113has_interfaceI22PPB_VarArrayBuffer_1_0EEbv
.Ltmp1106:
	.cfi_endproc
.Leh_func_end119:

	.align	16, 0x90
	.type	_ZN2pp12_GLOBAL__N_113get_interfaceI22PPB_VarArrayBuffer_1_0EEPKT_v,@function
_ZN2pp12_GLOBAL__N_113get_interfaceI22PPB_VarArrayBuffer_1_0EEPKT_v: # @_ZN2pp12_GLOBAL__N_113get_interfaceI22PPB_VarArrayBuffer_1_0EEPKT_v
.Ltmp1116:
	.cfi_startproc
	.cfi_personality 0, __gxx_personality_v0
.Leh_func_begin120:
	.cfi_lsda 0, .Lexception120
# BB#0:
	pushl	%esi
.Ltmp1117:
	.cfi_def_cfa_offset 8
	subl	$24, %esp
.Ltmp1118:
	.cfi_def_cfa_offset 32
.Ltmp1119:
	.cfi_offset %esi, -8
	movb	_ZGVZN2pp12_GLOBAL__N_113get_interfaceI22PPB_VarArrayBuffer_1_0EEPKT_vE5funcs, %al
	testb	%al, %al
	jne	.LBB120_6
# BB#1:
	movl	$_ZGVZN2pp12_GLOBAL__N_113get_interfaceI22PPB_VarArrayBuffer_1_0EEPKT_vE5funcs, (%esp)
	calll	__cxa_guard_acquire
	testl	%eax, %eax
	je	.LBB120_6
# BB#2:
.Ltmp1107:
	calll	_ZN2pp6Module3GetEv
	movl	%eax, %esi
.Ltmp1108:
# BB#3:
.Ltmp1109:
	calll	_ZN2pp12_GLOBAL__N_114interface_nameI22PPB_VarArrayBuffer_1_0EEPKcv
.Ltmp1110:
# BB#4:
.Ltmp1111:
	movl	%eax, 4(%esp)
	movl	%esi, (%esp)
	calll	_ZN2pp6Module19GetBrowserInterfaceEPKc
.Ltmp1112:
# BB#5:
	movl	%eax, _ZZN2pp12_GLOBAL__N_113get_interfaceI22PPB_VarArrayBuffer_1_0EEPKT_vE5funcs
	movl	$_ZGVZN2pp12_GLOBAL__N_113get_interfaceI22PPB_VarArrayBuffer_1_0EEPKT_vE5funcs, (%esp)
	calll	__cxa_guard_release
.LBB120_6:
	movl	_ZZN2pp12_GLOBAL__N_113get_interfaceI22PPB_VarArrayBuffer_1_0EEPKT_vE5funcs, %eax
	addl	$24, %esp
	popl	%esi
	ret
.LBB120_7:
.Ltmp1113:
	movl	%eax, 20(%esp)
	movl	%edx, 16(%esp)
	movl	$_ZGVZN2pp12_GLOBAL__N_113get_interfaceI22PPB_VarArrayBuffer_1_0EEPKT_vE5funcs, (%esp)
	calll	__cxa_guard_abort
	movl	20(%esp), %eax
	movl	%eax, (%esp)
	calll	_Unwind_Resume
.Ltmp1120:
	.size	_ZN2pp12_GLOBAL__N_113get_interfaceI22PPB_VarArrayBuffer_1_0EEPKT_v, .Ltmp1120-_ZN2pp12_GLOBAL__N_113get_interfaceI22PPB_VarArrayBuffer_1_0EEPKT_v
.Ltmp1121:
	.cfi_endproc
.Leh_func_end120:
	.section	.gcc_except_table,"a",@progbits
	.align	4
GCC_except_table120:
.Lexception120:
	.byte	255                     # @LPStart Encoding = omit
	.byte	0                       # @TType Encoding = absptr
	.byte	41                      # @TType base offset
	.byte	3                       # Call site Encoding = udata4
	.byte	39                      # Call site table length
.Lset273 = .Leh_func_begin120-.Leh_func_begin120 # >> Call Site 1 <<
	.long	.Lset273
.Lset274 = .Ltmp1107-.Leh_func_begin120 #   Call between .Leh_func_begin120 and .Ltmp1107
	.long	.Lset274
	.long	0                       #     has no landing pad
	.byte	0                       #   On action: cleanup
.Lset275 = .Ltmp1107-.Leh_func_begin120 # >> Call Site 2 <<
	.long	.Lset275
.Lset276 = .Ltmp1112-.Ltmp1107          #   Call between .Ltmp1107 and .Ltmp1112
	.long	.Lset276
.Lset277 = .Ltmp1113-.Leh_func_begin120 #     jumps to .Ltmp1113
	.long	.Lset277
	.byte	0                       #   On action: cleanup
.Lset278 = .Ltmp1112-.Leh_func_begin120 # >> Call Site 3 <<
	.long	.Lset278
.Lset279 = .Leh_func_end120-.Ltmp1112   #   Call between .Ltmp1112 and .Leh_func_end120
	.long	.Lset279
	.long	0                       #     has no landing pad
	.byte	0                       #   On action: cleanup
	.align	4

	.text
	.globl	_ZN2pp14VarArrayBufferaSERKS0_
	.align	16, 0x90
	.type	_ZN2pp14VarArrayBufferaSERKS0_,@function
_ZN2pp14VarArrayBufferaSERKS0_:         # @_ZN2pp14VarArrayBufferaSERKS0_
.Ltmp1124:
	.cfi_startproc
# BB#0:
	pushl	%esi
.Ltmp1125:
	.cfi_def_cfa_offset 8
	subl	$24, %esp
.Ltmp1126:
	.cfi_def_cfa_offset 32
.Ltmp1127:
	.cfi_offset %esi, -8
	movl	32(%esp), %eax
	movl	%eax, 20(%esp)
	movl	36(%esp), %eax
	movl	%eax, 16(%esp)
	movl	20(%esp), %esi
	movl	%eax, 4(%esp)
	movl	%esi, (%esp)
	calll	_ZN2pp3VaraSERKS0_
	movl	%esi, %eax
	addl	$24, %esp
	popl	%esi
	ret
.Ltmp1128:
	.size	_ZN2pp14VarArrayBufferaSERKS0_, .Ltmp1128-_ZN2pp14VarArrayBufferaSERKS0_
.Ltmp1129:
	.cfi_endproc
.Leh_func_end121:

	.globl	_ZN2pp14VarArrayBufferaSERKNS_3VarE
	.align	16, 0x90
	.type	_ZN2pp14VarArrayBufferaSERKNS_3VarE,@function
_ZN2pp14VarArrayBufferaSERKNS_3VarE:    # @_ZN2pp14VarArrayBufferaSERKNS_3VarE
.Ltmp1132:
	.cfi_startproc
# BB#0:
	pushl	%esi
.Ltmp1133:
	.cfi_def_cfa_offset 8
	subl	$24, %esp
.Ltmp1134:
	.cfi_def_cfa_offset 32
.Ltmp1135:
	.cfi_offset %esi, -8
	movl	32(%esp), %eax
	movl	%eax, 20(%esp)
	movl	36(%esp), %eax
	movl	%eax, 16(%esp)
	movl	20(%esp), %esi
	movl	%eax, (%esp)
	calll	_ZNK2pp3Var15is_array_bufferEv
	testb	%al, %al
	je	.LBB122_2
# BB#1:
	movl	16(%esp), %eax
	movl	%eax, 4(%esp)
	movl	%esi, (%esp)
	calll	_ZN2pp3VaraSERKS0_
	addl	$24, %esp
	popl	%esi
	ret
.LBB122_2:
	movl	$.L__PRETTY_FUNCTION__._ZN2pp14VarArrayBufferaSERKNS_3VarE, 12(%esp)
	movl	$49, 8(%esp)
	movl	$.L.str120, 4(%esp)
	movl	$.L.str19, (%esp)
	calll	__assert_fail
.Ltmp1136:
	.size	_ZN2pp14VarArrayBufferaSERKNS_3VarE, .Ltmp1136-_ZN2pp14VarArrayBufferaSERKNS_3VarE
.Ltmp1137:
	.cfi_endproc
.Leh_func_end122:

	.globl	_ZNK2pp14VarArrayBuffer10ByteLengthEv
	.align	16, 0x90
	.type	_ZNK2pp14VarArrayBuffer10ByteLengthEv,@function
_ZNK2pp14VarArrayBuffer10ByteLengthEv:  # @_ZNK2pp14VarArrayBuffer10ByteLengthEv
.Ltmp1140:
	.cfi_startproc
# BB#0:
	pushl	%esi
.Ltmp1141:
	.cfi_def_cfa_offset 8
	subl	$56, %esp
.Ltmp1142:
	.cfi_def_cfa_offset 64
.Ltmp1143:
	.cfi_offset %esi, -8
	movl	64(%esp), %esi
	movl	%esi, 52(%esp)
	calll	_ZNSt14numeric_limitsIjE3maxEv
	movl	%eax, 48(%esp)
	movl	%esi, (%esp)
	calll	_ZNK2pp3Var15is_array_bufferEv
	testb	%al, %al
	je	.LBB123_3
# BB#1:
	calll	_ZN2pp12_GLOBAL__N_113has_interfaceI22PPB_VarArrayBuffer_1_0EEbv
	cmpb	$1, %al
	jne	.LBB123_3
# BB#2:
	calll	_ZN2pp12_GLOBAL__N_113get_interfaceI22PPB_VarArrayBuffer_1_0EEPKT_v
	movl	4(%eax), %eax
	movsd	4(%esi), %xmm0
	movsd	12(%esi), %xmm1
	movsd	%xmm1, 40(%esp)
	movsd	%xmm0, 32(%esp)
	movsd	32(%esp), %xmm0
	movsd	40(%esp), %xmm1
	movsd	%xmm1, 8(%esp)
	movsd	%xmm0, (%esp)
	leal	48(%esp), %ecx
	movl	%ecx, 16(%esp)
	calll	*%eax
	movl	48(%esp), %eax
	addl	$56, %esp
	popl	%esi
	ret
.LBB123_3:
	movl	$.L__PRETTY_FUNCTION__._ZNK2pp14VarArrayBuffer10ByteLengthEv, 12(%esp)
	movl	$59, 8(%esp)
	movl	$.L.str120, 4(%esp)
	movl	$.L.str19, (%esp)
	calll	__assert_fail
.Ltmp1144:
	.size	_ZNK2pp14VarArrayBuffer10ByteLengthEv, .Ltmp1144-_ZNK2pp14VarArrayBuffer10ByteLengthEv
.Ltmp1145:
	.cfi_endproc
.Leh_func_end123:

	.section	.text._ZNSt14numeric_limitsIjE3maxEv,"axG",@progbits,_ZNSt14numeric_limitsIjE3maxEv,comdat
	.weak	_ZNSt14numeric_limitsIjE3maxEv
	.align	16, 0x90
	.type	_ZNSt14numeric_limitsIjE3maxEv,@function
_ZNSt14numeric_limitsIjE3maxEv:         # @_ZNSt14numeric_limitsIjE3maxEv
# BB#0:
	movl	$-1, %eax
	ret
.Ltmp1146:
	.size	_ZNSt14numeric_limitsIjE3maxEv, .Ltmp1146-_ZNSt14numeric_limitsIjE3maxEv

	.text
	.globl	_ZN2pp14VarArrayBuffer3MapEv
	.align	16, 0x90
	.type	_ZN2pp14VarArrayBuffer3MapEv,@function
_ZN2pp14VarArrayBuffer3MapEv:           # @_ZN2pp14VarArrayBuffer3MapEv
.Ltmp1149:
	.cfi_startproc
# BB#0:
	pushl	%esi
.Ltmp1150:
	.cfi_def_cfa_offset 8
	subl	$40, %esp
.Ltmp1151:
	.cfi_def_cfa_offset 48
.Ltmp1152:
	.cfi_offset %esi, -8
	movl	48(%esp), %esi
	movl	%esi, 36(%esp)
	movl	%esi, (%esp)
	calll	_ZNK2pp3Var15is_array_bufferEv
	testb	%al, %al
	je	.LBB125_3
# BB#1:
	calll	_ZN2pp12_GLOBAL__N_113has_interfaceI22PPB_VarArrayBuffer_1_0EEbv
	cmpb	$1, %al
	jne	.LBB125_3
# BB#2:
	calll	_ZN2pp12_GLOBAL__N_113get_interfaceI22PPB_VarArrayBuffer_1_0EEPKT_v
	movl	8(%eax), %eax
	movsd	4(%esi), %xmm0
	movsd	12(%esi), %xmm1
	movsd	%xmm1, 24(%esp)
	movsd	%xmm0, 16(%esp)
	movsd	16(%esp), %xmm0
	movsd	24(%esp), %xmm1
	movsd	%xmm1, 8(%esp)
	movsd	%xmm0, (%esp)
	calll	*%eax
	addl	$40, %esp
	popl	%esi
	ret
.LBB125_3:
	movl	$.L__PRETTY_FUNCTION__._ZN2pp14VarArrayBuffer3MapEv, 12(%esp)
	movl	$66, 8(%esp)
	movl	$.L.str120, 4(%esp)
	movl	$.L.str19, (%esp)
	calll	__assert_fail
.Ltmp1153:
	.size	_ZN2pp14VarArrayBuffer3MapEv, .Ltmp1153-_ZN2pp14VarArrayBuffer3MapEv
.Ltmp1154:
	.cfi_endproc
.Leh_func_end125:

	.globl	_ZN2pp14VarArrayBuffer5UnmapEv
	.align	16, 0x90
	.type	_ZN2pp14VarArrayBuffer5UnmapEv,@function
_ZN2pp14VarArrayBuffer5UnmapEv:         # @_ZN2pp14VarArrayBuffer5UnmapEv
.Ltmp1157:
	.cfi_startproc
# BB#0:
	pushl	%esi
.Ltmp1158:
	.cfi_def_cfa_offset 8
	subl	$40, %esp
.Ltmp1159:
	.cfi_def_cfa_offset 48
.Ltmp1160:
	.cfi_offset %esi, -8
	movl	48(%esp), %esi
	movl	%esi, 36(%esp)
	movl	%esi, (%esp)
	calll	_ZNK2pp3Var15is_array_bufferEv
	testb	%al, %al
	je	.LBB126_3
# BB#1:
	calll	_ZN2pp12_GLOBAL__N_113has_interfaceI22PPB_VarArrayBuffer_1_0EEbv
	cmpb	$1, %al
	jne	.LBB126_3
# BB#2:
	calll	_ZN2pp12_GLOBAL__N_113get_interfaceI22PPB_VarArrayBuffer_1_0EEPKT_v
	movl	12(%eax), %eax
	movsd	4(%esi), %xmm0
	movsd	12(%esi), %xmm1
	movsd	%xmm1, 24(%esp)
	movsd	%xmm0, 16(%esp)
	movsd	16(%esp), %xmm0
	movsd	24(%esp), %xmm1
	movsd	%xmm1, 8(%esp)
	movsd	%xmm0, (%esp)
	calll	*%eax
	addl	$40, %esp
	popl	%esi
	ret
.LBB126_3:
	movl	$.L__PRETTY_FUNCTION__._ZN2pp14VarArrayBuffer5UnmapEv, 12(%esp)
	movl	$74, 8(%esp)
	movl	$.L.str120, 4(%esp)
	movl	$.L.str19, (%esp)
	calll	__assert_fail
.Ltmp1161:
	.size	_ZN2pp14VarArrayBuffer5UnmapEv, .Ltmp1161-_ZN2pp14VarArrayBuffer5UnmapEv
.Ltmp1162:
	.cfi_endproc
.Leh_func_end126:

	.section	.text._ZN2pp14VarArrayBufferD1Ev,"axG",@progbits,_ZN2pp14VarArrayBufferD1Ev,comdat
	.weak	_ZN2pp14VarArrayBufferD1Ev
	.align	16, 0x90
	.type	_ZN2pp14VarArrayBufferD1Ev,@function
_ZN2pp14VarArrayBufferD1Ev:             # @_ZN2pp14VarArrayBufferD1Ev
.Ltmp1164:
	.cfi_startproc
# BB#0:
	subl	$12, %esp
.Ltmp1165:
	.cfi_def_cfa_offset 16
	movl	16(%esp), %eax
	movl	%eax, 8(%esp)
	movl	%eax, (%esp)
	calll	_ZN2pp14VarArrayBufferD2Ev
	addl	$12, %esp
	ret
.Ltmp1166:
	.size	_ZN2pp14VarArrayBufferD1Ev, .Ltmp1166-_ZN2pp14VarArrayBufferD1Ev
.Ltmp1167:
	.cfi_endproc
.Leh_func_end127:

	.section	.text._ZN2pp14VarArrayBufferD0Ev,"axG",@progbits,_ZN2pp14VarArrayBufferD0Ev,comdat
	.weak	_ZN2pp14VarArrayBufferD0Ev
	.align	16, 0x90
	.type	_ZN2pp14VarArrayBufferD0Ev,@function
_ZN2pp14VarArrayBufferD0Ev:             # @_ZN2pp14VarArrayBufferD0Ev
.Ltmp1173:
	.cfi_startproc
	.cfi_personality 0, __gxx_personality_v0
.Leh_func_begin128:
	.cfi_lsda 0, .Lexception128
# BB#0:
	pushl	%esi
.Ltmp1174:
	.cfi_def_cfa_offset 8
	subl	$24, %esp
.Ltmp1175:
	.cfi_def_cfa_offset 32
.Ltmp1176:
	.cfi_offset %esi, -8
	movl	32(%esp), %esi
	movl	%esi, 20(%esp)
.Ltmp1168:
	movl	%esi, (%esp)
	calll	_ZN2pp14VarArrayBufferD1Ev
.Ltmp1169:
# BB#1:
	movl	%esi, (%esp)
	calll	_ZdlPv
	addl	$24, %esp
	popl	%esi
	ret
.LBB128_2:
.Ltmp1170:
	movl	%eax, 16(%esp)
	movl	%edx, 12(%esp)
	movl	%esi, (%esp)
	calll	_ZdlPv
	movl	16(%esp), %eax
	movl	%eax, (%esp)
	calll	_Unwind_Resume
.Ltmp1177:
	.size	_ZN2pp14VarArrayBufferD0Ev, .Ltmp1177-_ZN2pp14VarArrayBufferD0Ev
.Ltmp1178:
	.cfi_endproc
.Leh_func_end128:
	.section	.gcc_except_table,"a",@progbits
	.align	4
GCC_except_table128:
.Lexception128:
	.byte	255                     # @LPStart Encoding = omit
	.byte	0                       # @TType Encoding = absptr
	.byte	156                     # @TType base offset
	.zero	1
	.byte	3                       # Call site Encoding = udata4
	.byte	26                      # Call site table length
.Lset280 = .Ltmp1168-.Leh_func_begin128 # >> Call Site 1 <<
	.long	.Lset280
.Lset281 = .Ltmp1169-.Ltmp1168          #   Call between .Ltmp1168 and .Ltmp1169
	.long	.Lset281
.Lset282 = .Ltmp1170-.Leh_func_begin128 #     jumps to .Ltmp1170
	.long	.Lset282
	.byte	0                       #   On action: cleanup
.Lset283 = .Ltmp1169-.Leh_func_begin128 # >> Call Site 2 <<
	.long	.Lset283
.Lset284 = .Leh_func_end128-.Ltmp1169   #   Call between .Ltmp1169 and .Leh_func_end128
	.long	.Lset284
	.long	0                       #     has no landing pad
	.byte	0                       #   On action: cleanup
	.align	4

	.text
	.align	16, 0x90
	.type	_ZN2pp12_GLOBAL__N_114interface_nameI22PPB_VarArrayBuffer_1_0EEPKcv,@function
_ZN2pp12_GLOBAL__N_114interface_nameI22PPB_VarArrayBuffer_1_0EEPKcv: # @_ZN2pp12_GLOBAL__N_114interface_nameI22PPB_VarArrayBuffer_1_0EEPKcv
# BB#0:
	movl	$.L.str221, %eax
	ret
.Ltmp1179:
	.size	_ZN2pp12_GLOBAL__N_114interface_nameI22PPB_VarArrayBuffer_1_0EEPKcv, .Ltmp1179-_ZN2pp12_GLOBAL__N_114interface_nameI22PPB_VarArrayBuffer_1_0EEPKcv

	.section	.text._ZN2pp14VarArrayBufferD2Ev,"axG",@progbits,_ZN2pp14VarArrayBufferD2Ev,comdat
	.weak	_ZN2pp14VarArrayBufferD2Ev
	.align	16, 0x90
	.type	_ZN2pp14VarArrayBufferD2Ev,@function
_ZN2pp14VarArrayBufferD2Ev:             # @_ZN2pp14VarArrayBufferD2Ev
.Ltmp1181:
	.cfi_startproc
# BB#0:
	subl	$12, %esp
.Ltmp1182:
	.cfi_def_cfa_offset 16
	movl	16(%esp), %eax
	movl	%eax, 8(%esp)
	movl	%eax, (%esp)
	calll	_ZN2pp3VarD2Ev
	addl	$12, %esp
	ret
.Ltmp1183:
	.size	_ZN2pp14VarArrayBufferD2Ev, .Ltmp1183-_ZN2pp14VarArrayBufferD2Ev
.Ltmp1184:
	.cfi_endproc
.Leh_func_end130:

	.text
	.globl	_ZN2pp5AudioC2ERKNS_14InstanceHandleERKNS_11AudioConfigEPFvPvjS7_ES7_
	.align	16, 0x90
	.type	_ZN2pp5AudioC2ERKNS_14InstanceHandleERKNS_11AudioConfigEPFvPvjS7_ES7_,@function
_ZN2pp5AudioC2ERKNS_14InstanceHandleERKNS_11AudioConfigEPFvPvjS7_ES7_: # @_ZN2pp5AudioC2ERKNS_14InstanceHandleERKNS_11AudioConfigEPFvPvjS7_ES7_
.Ltmp1211:
	.cfi_startproc
	.cfi_personality 0, __gxx_personality_v0
.Leh_func_begin131:
	.cfi_lsda 0, .Lexception131
# BB#0:
	pushl	%ebp
.Ltmp1212:
	.cfi_def_cfa_offset 8
	pushl	%ebx
.Ltmp1213:
	.cfi_def_cfa_offset 12
	pushl	%edi
.Ltmp1214:
	.cfi_def_cfa_offset 16
	pushl	%esi
.Ltmp1215:
	.cfi_def_cfa_offset 20
	subl	$44, %esp
.Ltmp1216:
	.cfi_def_cfa_offset 64
.Ltmp1217:
	.cfi_offset %esi, -20
.Ltmp1218:
	.cfi_offset %edi, -16
.Ltmp1219:
	.cfi_offset %ebx, -12
.Ltmp1220:
	.cfi_offset %ebp, -8
	movl	64(%esp), %eax
	movl	%eax, 40(%esp)
	movl	68(%esp), %eax
	movl	%eax, 36(%esp)
	movl	72(%esp), %eax
	movl	%eax, 32(%esp)
	movl	76(%esp), %eax
	movl	%eax, 28(%esp)
	movl	80(%esp), %eax
	movl	%eax, 24(%esp)
	movl	40(%esp), %edi
	movl	%edi, (%esp)
	calll	_ZN2pp8ResourceC2Ev
	movl	$_ZTVN2pp5AudioE+8, (%edi)
	movl	32(%esp), %eax
.Ltmp1185:
	movl	%eax, 4(%esp)
	leal	8(%edi), %ebx
	movl	%ebx, (%esp)
	calll	_ZN2pp11AudioConfigC1ERKS0_
.Ltmp1186:
# BB#1:
.Ltmp1188:
	calll	_ZN2pp12_GLOBAL__N_113has_interfaceI13PPB_Audio_1_0EEbv
.Ltmp1189:
# BB#2:
	cmpb	$1, %al
	jne	.LBB131_8
# BB#3:
.Ltmp1190:
	calll	_ZN2pp12_GLOBAL__N_113get_interfaceI13PPB_Audio_1_0EEPKT_v
.Ltmp1191:
# BB#4:
	movl	(%eax), %ebp
	movl	36(%esp), %eax
.Ltmp1192:
	movl	%eax, (%esp)
	calll	_ZNK2pp14InstanceHandle11pp_instanceEv
	movl	%eax, %esi
.Ltmp1193:
# BB#5:
	movl	32(%esp), %eax
.Ltmp1194:
	movl	%eax, (%esp)
	calll	_ZNK2pp8Resource11pp_resourceEv
.Ltmp1195:
# BB#6:
	movl	28(%esp), %ecx
	movl	24(%esp), %edx
.Ltmp1196:
	movl	%edx, 12(%esp)
	movl	%ecx, 8(%esp)
	movl	%eax, 4(%esp)
	movl	%esi, (%esp)
	calll	*%ebp
.Ltmp1197:
# BB#7:
.Ltmp1198:
	movl	%eax, 4(%esp)
	movl	%edi, (%esp)
	calll	_ZN2pp8Resource22PassRefFromConstructorEi
.Ltmp1199:
.LBB131_8:
	addl	$44, %esp
	popl	%esi
	popl	%edi
	popl	%ebx
	popl	%ebp
	ret
.LBB131_9:
.Ltmp1187:
	movl	%eax, 20(%esp)
	movl	%edx, 16(%esp)
.LBB131_10:
.Ltmp1203:
	movl	%edi, (%esp)
	calll	_ZN2pp8ResourceD2Ev
.Ltmp1204:
# BB#11:
	movl	20(%esp), %eax
	movl	%eax, (%esp)
	calll	_Unwind_Resume
.LBB131_12:
.Ltmp1200:
	movl	%eax, 20(%esp)
	movl	%edx, 16(%esp)
.Ltmp1201:
	movl	%ebx, (%esp)
	calll	_ZN2pp11AudioConfigD1Ev
.Ltmp1202:
	jmp	.LBB131_10
.LBB131_13:
.Ltmp1205:
	calll	_ZSt9terminatev
.Ltmp1221:
	.size	_ZN2pp5AudioC2ERKNS_14InstanceHandleERKNS_11AudioConfigEPFvPvjS7_ES7_, .Ltmp1221-_ZN2pp5AudioC2ERKNS_14InstanceHandleERKNS_11AudioConfigEPFvPvjS7_ES7_
.Ltmp1222:
	.cfi_endproc
.Leh_func_end131:
	.section	.gcc_except_table,"a",@progbits
	.align	4
GCC_except_table131:
.Lexception131:
	.byte	255                     # @LPStart Encoding = omit
	.byte	0                       # @TType Encoding = absptr
	.byte	214                     # @TType base offset
	.zero	2,128
	.zero	1
	.byte	3                       # Call site Encoding = udata4
	.byte	78                      # Call site table length
.Lset285 = .Ltmp1185-.Leh_func_begin131 # >> Call Site 1 <<
	.long	.Lset285
.Lset286 = .Ltmp1186-.Ltmp1185          #   Call between .Ltmp1185 and .Ltmp1186
	.long	.Lset286
.Lset287 = .Ltmp1187-.Leh_func_begin131 #     jumps to .Ltmp1187
	.long	.Lset287
	.byte	0                       #   On action: cleanup
.Lset288 = .Ltmp1188-.Leh_func_begin131 # >> Call Site 2 <<
	.long	.Lset288
.Lset289 = .Ltmp1199-.Ltmp1188          #   Call between .Ltmp1188 and .Ltmp1199
	.long	.Lset289
.Lset290 = .Ltmp1200-.Leh_func_begin131 #     jumps to .Ltmp1200
	.long	.Lset290
	.byte	0                       #   On action: cleanup
.Lset291 = .Ltmp1203-.Leh_func_begin131 # >> Call Site 3 <<
	.long	.Lset291
.Lset292 = .Ltmp1204-.Ltmp1203          #   Call between .Ltmp1203 and .Ltmp1204
	.long	.Lset292
.Lset293 = .Ltmp1205-.Leh_func_begin131 #     jumps to .Ltmp1205
	.long	.Lset293
	.byte	1                       #   On action: 1
.Lset294 = .Ltmp1204-.Leh_func_begin131 # >> Call Site 4 <<
	.long	.Lset294
.Lset295 = .Ltmp1201-.Ltmp1204          #   Call between .Ltmp1204 and .Ltmp1201
	.long	.Lset295
	.long	0                       #     has no landing pad
	.byte	0                       #   On action: cleanup
.Lset296 = .Ltmp1201-.Leh_func_begin131 # >> Call Site 5 <<
	.long	.Lset296
.Lset297 = .Ltmp1202-.Ltmp1201          #   Call between .Ltmp1201 and .Ltmp1202
	.long	.Lset297
.Lset298 = .Ltmp1205-.Leh_func_begin131 #     jumps to .Ltmp1205
	.long	.Lset298
	.byte	1                       #   On action: 1
.Lset299 = .Ltmp1202-.Leh_func_begin131 # >> Call Site 6 <<
	.long	.Lset299
.Lset300 = .Leh_func_end131-.Ltmp1202   #   Call between .Ltmp1202 and .Leh_func_end131
	.long	.Lset300
	.long	0                       #     has no landing pad
	.byte	0                       #   On action: cleanup
	.byte	1                       # >> Action Record 1 <<
                                        #   Catch TypeInfo 1
	.byte	0                       #   No further actions
                                        # >> Catch TypeInfos <<
	.long	0                       # TypeInfo 1
	.align	4

	.section	.text._ZN2pp11AudioConfigC1ERKS0_,"axG",@progbits,_ZN2pp11AudioConfigC1ERKS0_,comdat
	.weak	_ZN2pp11AudioConfigC1ERKS0_
	.align	16, 0x90
	.type	_ZN2pp11AudioConfigC1ERKS0_,@function
_ZN2pp11AudioConfigC1ERKS0_:            # @_ZN2pp11AudioConfigC1ERKS0_
.Ltmp1224:
	.cfi_startproc
# BB#0:
	subl	$28, %esp
.Ltmp1225:
	.cfi_def_cfa_offset 32
	movl	32(%esp), %eax
	movl	%eax, 24(%esp)
	movl	36(%esp), %eax
	movl	%eax, 20(%esp)
	movl	24(%esp), %ecx
	movl	%eax, 4(%esp)
	movl	%ecx, (%esp)
	calll	_ZN2pp11AudioConfigC2ERKS0_
	addl	$28, %esp
	ret
.Ltmp1226:
	.size	_ZN2pp11AudioConfigC1ERKS0_, .Ltmp1226-_ZN2pp11AudioConfigC1ERKS0_
.Ltmp1227:
	.cfi_endproc
.Leh_func_end132:

	.text
	.align	16, 0x90
	.type	_ZN2pp12_GLOBAL__N_113has_interfaceI13PPB_Audio_1_0EEbv,@function
_ZN2pp12_GLOBAL__N_113has_interfaceI13PPB_Audio_1_0EEbv: # @_ZN2pp12_GLOBAL__N_113has_interfaceI13PPB_Audio_1_0EEbv
.Ltmp1229:
	.cfi_startproc
# BB#0:
	subl	$12, %esp
.Ltmp1230:
	.cfi_def_cfa_offset 16
	calll	_ZN2pp12_GLOBAL__N_113get_interfaceI13PPB_Audio_1_0EEPKT_v
	testl	%eax, %eax
	setne	%al
	movzbl	%al, %eax
	addl	$12, %esp
	ret
.Ltmp1231:
	.size	_ZN2pp12_GLOBAL__N_113has_interfaceI13PPB_Audio_1_0EEbv, .Ltmp1231-_ZN2pp12_GLOBAL__N_113has_interfaceI13PPB_Audio_1_0EEbv
.Ltmp1232:
	.cfi_endproc
.Leh_func_end133:

	.align	16, 0x90
	.type	_ZN2pp12_GLOBAL__N_113get_interfaceI13PPB_Audio_1_0EEPKT_v,@function
_ZN2pp12_GLOBAL__N_113get_interfaceI13PPB_Audio_1_0EEPKT_v: # @_ZN2pp12_GLOBAL__N_113get_interfaceI13PPB_Audio_1_0EEPKT_v
.Ltmp1242:
	.cfi_startproc
	.cfi_personality 0, __gxx_personality_v0
.Leh_func_begin134:
	.cfi_lsda 0, .Lexception134
# BB#0:
	pushl	%esi
.Ltmp1243:
	.cfi_def_cfa_offset 8
	subl	$24, %esp
.Ltmp1244:
	.cfi_def_cfa_offset 32
.Ltmp1245:
	.cfi_offset %esi, -8
	movb	_ZGVZN2pp12_GLOBAL__N_113get_interfaceI13PPB_Audio_1_0EEPKT_vE5funcs, %al
	testb	%al, %al
	jne	.LBB134_6
# BB#1:
	movl	$_ZGVZN2pp12_GLOBAL__N_113get_interfaceI13PPB_Audio_1_0EEPKT_vE5funcs, (%esp)
	calll	__cxa_guard_acquire
	testl	%eax, %eax
	je	.LBB134_6
# BB#2:
.Ltmp1233:
	calll	_ZN2pp6Module3GetEv
	movl	%eax, %esi
.Ltmp1234:
# BB#3:
.Ltmp1235:
	calll	_ZN2pp12_GLOBAL__N_114interface_nameI13PPB_Audio_1_0EEPKcv
.Ltmp1236:
# BB#4:
.Ltmp1237:
	movl	%eax, 4(%esp)
	movl	%esi, (%esp)
	calll	_ZN2pp6Module19GetBrowserInterfaceEPKc
.Ltmp1238:
# BB#5:
	movl	%eax, _ZZN2pp12_GLOBAL__N_113get_interfaceI13PPB_Audio_1_0EEPKT_vE5funcs
	movl	$_ZGVZN2pp12_GLOBAL__N_113get_interfaceI13PPB_Audio_1_0EEPKT_vE5funcs, (%esp)
	calll	__cxa_guard_release
.LBB134_6:
	movl	_ZZN2pp12_GLOBAL__N_113get_interfaceI13PPB_Audio_1_0EEPKT_vE5funcs, %eax
	addl	$24, %esp
	popl	%esi
	ret
.LBB134_7:
.Ltmp1239:
	movl	%eax, 20(%esp)
	movl	%edx, 16(%esp)
	movl	$_ZGVZN2pp12_GLOBAL__N_113get_interfaceI13PPB_Audio_1_0EEPKT_vE5funcs, (%esp)
	calll	__cxa_guard_abort
	movl	20(%esp), %eax
	movl	%eax, (%esp)
	calll	_Unwind_Resume
.Ltmp1246:
	.size	_ZN2pp12_GLOBAL__N_113get_interfaceI13PPB_Audio_1_0EEPKT_v, .Ltmp1246-_ZN2pp12_GLOBAL__N_113get_interfaceI13PPB_Audio_1_0EEPKT_v
.Ltmp1247:
	.cfi_endproc
.Leh_func_end134:
	.section	.gcc_except_table,"a",@progbits
	.align	4
GCC_except_table134:
.Lexception134:
	.byte	255                     # @LPStart Encoding = omit
	.byte	0                       # @TType Encoding = absptr
	.byte	41                      # @TType base offset
	.byte	3                       # Call site Encoding = udata4
	.byte	39                      # Call site table length
.Lset301 = .Leh_func_begin134-.Leh_func_begin134 # >> Call Site 1 <<
	.long	.Lset301
.Lset302 = .Ltmp1233-.Leh_func_begin134 #   Call between .Leh_func_begin134 and .Ltmp1233
	.long	.Lset302
	.long	0                       #     has no landing pad
	.byte	0                       #   On action: cleanup
.Lset303 = .Ltmp1233-.Leh_func_begin134 # >> Call Site 2 <<
	.long	.Lset303
.Lset304 = .Ltmp1238-.Ltmp1233          #   Call between .Ltmp1233 and .Ltmp1238
	.long	.Lset304
.Lset305 = .Ltmp1239-.Leh_func_begin134 #     jumps to .Ltmp1239
	.long	.Lset305
	.byte	0                       #   On action: cleanup
.Lset306 = .Ltmp1238-.Leh_func_begin134 # >> Call Site 3 <<
	.long	.Lset306
.Lset307 = .Leh_func_end134-.Ltmp1238   #   Call between .Ltmp1238 and .Leh_func_end134
	.long	.Lset307
	.long	0                       #     has no landing pad
	.byte	0                       #   On action: cleanup
	.align	4

	.section	.text._ZN2pp11AudioConfigD1Ev,"axG",@progbits,_ZN2pp11AudioConfigD1Ev,comdat
	.weak	_ZN2pp11AudioConfigD1Ev
	.align	16, 0x90
	.type	_ZN2pp11AudioConfigD1Ev,@function
_ZN2pp11AudioConfigD1Ev:                # @_ZN2pp11AudioConfigD1Ev
.Ltmp1249:
	.cfi_startproc
# BB#0:
	subl	$12, %esp
.Ltmp1250:
	.cfi_def_cfa_offset 16
	movl	16(%esp), %eax
	movl	%eax, 8(%esp)
	movl	%eax, (%esp)
	calll	_ZN2pp11AudioConfigD2Ev
	addl	$12, %esp
	ret
.Ltmp1251:
	.size	_ZN2pp11AudioConfigD1Ev, .Ltmp1251-_ZN2pp11AudioConfigD1Ev
.Ltmp1252:
	.cfi_endproc
.Leh_func_end135:

	.text
	.globl	_ZN2pp5Audio13StartPlaybackEv
	.align	16, 0x90
	.type	_ZN2pp5Audio13StartPlaybackEv,@function
_ZN2pp5Audio13StartPlaybackEv:          # @_ZN2pp5Audio13StartPlaybackEv
.Ltmp1256:
	.cfi_startproc
# BB#0:
	pushl	%edi
.Ltmp1257:
	.cfi_def_cfa_offset 8
	pushl	%esi
.Ltmp1258:
	.cfi_def_cfa_offset 12
	subl	$20, %esp
.Ltmp1259:
	.cfi_def_cfa_offset 32
.Ltmp1260:
	.cfi_offset %esi, -12
.Ltmp1261:
	.cfi_offset %edi, -8
	movl	32(%esp), %esi
	movl	%esi, 16(%esp)
	calll	_ZN2pp12_GLOBAL__N_113has_interfaceI13PPB_Audio_1_0EEbv
	xorb	%cl, %cl
	testb	%al, %al
	je	.LBB136_2
# BB#1:
	calll	_ZN2pp12_GLOBAL__N_113get_interfaceI13PPB_Audio_1_0EEPKT_v
	movl	12(%eax), %edi
	movl	%esi, (%esp)
	calll	_ZNK2pp8Resource11pp_resourceEv
	movl	%eax, (%esp)
	calll	*%edi
	testl	%eax, %eax
	setne	%cl
.LBB136_2:
	movzbl	%cl, %eax
	addl	$20, %esp
	popl	%esi
	popl	%edi
	ret
.Ltmp1262:
	.size	_ZN2pp5Audio13StartPlaybackEv, .Ltmp1262-_ZN2pp5Audio13StartPlaybackEv
.Ltmp1263:
	.cfi_endproc
.Leh_func_end136:

	.globl	_ZN2pp5Audio12StopPlaybackEv
	.align	16, 0x90
	.type	_ZN2pp5Audio12StopPlaybackEv,@function
_ZN2pp5Audio12StopPlaybackEv:           # @_ZN2pp5Audio12StopPlaybackEv
.Ltmp1267:
	.cfi_startproc
# BB#0:
	pushl	%edi
.Ltmp1268:
	.cfi_def_cfa_offset 8
	pushl	%esi
.Ltmp1269:
	.cfi_def_cfa_offset 12
	subl	$20, %esp
.Ltmp1270:
	.cfi_def_cfa_offset 32
.Ltmp1271:
	.cfi_offset %esi, -12
.Ltmp1272:
	.cfi_offset %edi, -8
	movl	32(%esp), %esi
	movl	%esi, 16(%esp)
	calll	_ZN2pp12_GLOBAL__N_113has_interfaceI13PPB_Audio_1_0EEbv
	xorb	%cl, %cl
	testb	%al, %al
	je	.LBB137_2
# BB#1:
	calll	_ZN2pp12_GLOBAL__N_113get_interfaceI13PPB_Audio_1_0EEPKT_v
	movl	16(%eax), %edi
	movl	%esi, (%esp)
	calll	_ZNK2pp8Resource11pp_resourceEv
	movl	%eax, (%esp)
	calll	*%edi
	testl	%eax, %eax
	setne	%cl
.LBB137_2:
	movzbl	%cl, %eax
	addl	$20, %esp
	popl	%esi
	popl	%edi
	ret
.Ltmp1273:
	.size	_ZN2pp5Audio12StopPlaybackEv, .Ltmp1273-_ZN2pp5Audio12StopPlaybackEv
.Ltmp1274:
	.cfi_endproc
.Leh_func_end137:

	.section	.text._ZN2pp5AudioD1Ev,"axG",@progbits,_ZN2pp5AudioD1Ev,comdat
	.weak	_ZN2pp5AudioD1Ev
	.align	16, 0x90
	.type	_ZN2pp5AudioD1Ev,@function
_ZN2pp5AudioD1Ev:                       # @_ZN2pp5AudioD1Ev
.Ltmp1276:
	.cfi_startproc
# BB#0:
	subl	$12, %esp
.Ltmp1277:
	.cfi_def_cfa_offset 16
	movl	16(%esp), %eax
	movl	%eax, 8(%esp)
	movl	%eax, (%esp)
	calll	_ZN2pp5AudioD2Ev
	addl	$12, %esp
	ret
.Ltmp1278:
	.size	_ZN2pp5AudioD1Ev, .Ltmp1278-_ZN2pp5AudioD1Ev
.Ltmp1279:
	.cfi_endproc
.Leh_func_end138:

	.section	.text._ZN2pp5AudioD0Ev,"axG",@progbits,_ZN2pp5AudioD0Ev,comdat
	.weak	_ZN2pp5AudioD0Ev
	.align	16, 0x90
	.type	_ZN2pp5AudioD0Ev,@function
_ZN2pp5AudioD0Ev:                       # @_ZN2pp5AudioD0Ev
.Ltmp1285:
	.cfi_startproc
	.cfi_personality 0, __gxx_personality_v0
.Leh_func_begin139:
	.cfi_lsda 0, .Lexception139
# BB#0:
	pushl	%esi
.Ltmp1286:
	.cfi_def_cfa_offset 8
	subl	$24, %esp
.Ltmp1287:
	.cfi_def_cfa_offset 32
.Ltmp1288:
	.cfi_offset %esi, -8
	movl	32(%esp), %esi
	movl	%esi, 20(%esp)
.Ltmp1280:
	movl	%esi, (%esp)
	calll	_ZN2pp5AudioD1Ev
.Ltmp1281:
# BB#1:
	movl	%esi, (%esp)
	calll	_ZdlPv
	addl	$24, %esp
	popl	%esi
	ret
.LBB139_2:
.Ltmp1282:
	movl	%eax, 16(%esp)
	movl	%edx, 12(%esp)
	movl	%esi, (%esp)
	calll	_ZdlPv
	movl	16(%esp), %eax
	movl	%eax, (%esp)
	calll	_Unwind_Resume
.Ltmp1289:
	.size	_ZN2pp5AudioD0Ev, .Ltmp1289-_ZN2pp5AudioD0Ev
.Ltmp1290:
	.cfi_endproc
.Leh_func_end139:
	.section	.gcc_except_table,"a",@progbits
	.align	4
GCC_except_table139:
.Lexception139:
	.byte	255                     # @LPStart Encoding = omit
	.byte	0                       # @TType Encoding = absptr
	.byte	156                     # @TType base offset
	.zero	1
	.byte	3                       # Call site Encoding = udata4
	.byte	26                      # Call site table length
.Lset308 = .Ltmp1280-.Leh_func_begin139 # >> Call Site 1 <<
	.long	.Lset308
.Lset309 = .Ltmp1281-.Ltmp1280          #   Call between .Ltmp1280 and .Ltmp1281
	.long	.Lset309
.Lset310 = .Ltmp1282-.Leh_func_begin139 #     jumps to .Ltmp1282
	.long	.Lset310
	.byte	0                       #   On action: cleanup
.Lset311 = .Ltmp1281-.Leh_func_begin139 # >> Call Site 2 <<
	.long	.Lset311
.Lset312 = .Leh_func_end139-.Ltmp1281   #   Call between .Ltmp1281 and .Leh_func_end139
	.long	.Lset312
	.long	0                       #     has no landing pad
	.byte	0                       #   On action: cleanup
	.align	4

	.section	.text._ZN2pp5AudioD2Ev,"axG",@progbits,_ZN2pp5AudioD2Ev,comdat
	.weak	_ZN2pp5AudioD2Ev
	.align	16, 0x90
	.type	_ZN2pp5AudioD2Ev,@function
_ZN2pp5AudioD2Ev:                       # @_ZN2pp5AudioD2Ev
.Ltmp1299:
	.cfi_startproc
	.cfi_personality 0, __gxx_personality_v0
.Leh_func_begin140:
	.cfi_lsda 0, .Lexception140
# BB#0:
	pushl	%esi
.Ltmp1300:
	.cfi_def_cfa_offset 8
	subl	$24, %esp
.Ltmp1301:
	.cfi_def_cfa_offset 32
.Ltmp1302:
	.cfi_offset %esi, -8
	movl	32(%esp), %esi
	movl	%esi, 20(%esp)
	movl	$_ZTVN2pp5AudioE+8, (%esi)
.Ltmp1291:
	leal	8(%esi), %eax
	movl	%eax, (%esp)
	calll	_ZN2pp11AudioConfigD1Ev
.Ltmp1292:
# BB#1:
	movl	%esi, (%esp)
	calll	_ZN2pp8ResourceD2Ev
	addl	$24, %esp
	popl	%esi
	ret
.LBB140_2:
.Ltmp1293:
	movl	%eax, 16(%esp)
	movl	%edx, 12(%esp)
.Ltmp1294:
	movl	%esi, (%esp)
	calll	_ZN2pp8ResourceD2Ev
.Ltmp1295:
# BB#3:
	movl	16(%esp), %eax
	movl	%eax, (%esp)
	calll	_Unwind_Resume
.LBB140_4:
.Ltmp1296:
	calll	_ZSt9terminatev
.Ltmp1303:
	.size	_ZN2pp5AudioD2Ev, .Ltmp1303-_ZN2pp5AudioD2Ev
.Ltmp1304:
	.cfi_endproc
.Leh_func_end140:
	.section	.gcc_except_table,"a",@progbits
	.align	4
GCC_except_table140:
.Lexception140:
	.byte	255                     # @LPStart Encoding = omit
	.byte	0                       # @TType Encoding = absptr
	.byte	188                     # @TType base offset
	.zero	1
	.byte	3                       # Call site Encoding = udata4
	.byte	52                      # Call site table length
.Lset313 = .Ltmp1291-.Leh_func_begin140 # >> Call Site 1 <<
	.long	.Lset313
.Lset314 = .Ltmp1292-.Ltmp1291          #   Call between .Ltmp1291 and .Ltmp1292
	.long	.Lset314
.Lset315 = .Ltmp1293-.Leh_func_begin140 #     jumps to .Ltmp1293
	.long	.Lset315
	.byte	0                       #   On action: cleanup
.Lset316 = .Ltmp1292-.Leh_func_begin140 # >> Call Site 2 <<
	.long	.Lset316
.Lset317 = .Ltmp1294-.Ltmp1292          #   Call between .Ltmp1292 and .Ltmp1294
	.long	.Lset317
	.long	0                       #     has no landing pad
	.byte	0                       #   On action: cleanup
.Lset318 = .Ltmp1294-.Leh_func_begin140 # >> Call Site 3 <<
	.long	.Lset318
.Lset319 = .Ltmp1295-.Ltmp1294          #   Call between .Ltmp1294 and .Ltmp1295
	.long	.Lset319
.Lset320 = .Ltmp1296-.Leh_func_begin140 #     jumps to .Ltmp1296
	.long	.Lset320
	.byte	1                       #   On action: 1
.Lset321 = .Ltmp1295-.Leh_func_begin140 # >> Call Site 4 <<
	.long	.Lset321
.Lset322 = .Leh_func_end140-.Ltmp1295   #   Call between .Ltmp1295 and .Leh_func_end140
	.long	.Lset322
	.long	0                       #     has no landing pad
	.byte	0                       #   On action: cleanup
	.byte	1                       # >> Action Record 1 <<
                                        #   Catch TypeInfo 1
	.byte	0                       #   No further actions
                                        # >> Catch TypeInfos <<
	.long	0                       # TypeInfo 1
	.align	4

	.text
	.align	16, 0x90
	.type	_ZN2pp12_GLOBAL__N_114interface_nameI13PPB_Audio_1_0EEPKcv,@function
_ZN2pp12_GLOBAL__N_114interface_nameI13PPB_Audio_1_0EEPKcv: # @_ZN2pp12_GLOBAL__N_114interface_nameI13PPB_Audio_1_0EEPKcv
# BB#0:
	movl	$.L.str22, %eax
	ret
.Ltmp1305:
	.size	_ZN2pp12_GLOBAL__N_114interface_nameI13PPB_Audio_1_0EEPKcv, .Ltmp1305-_ZN2pp12_GLOBAL__N_114interface_nameI13PPB_Audio_1_0EEPKcv

	.section	.text._ZN2pp11AudioConfigD2Ev,"axG",@progbits,_ZN2pp11AudioConfigD2Ev,comdat
	.weak	_ZN2pp11AudioConfigD2Ev
	.align	16, 0x90
	.type	_ZN2pp11AudioConfigD2Ev,@function
_ZN2pp11AudioConfigD2Ev:                # @_ZN2pp11AudioConfigD2Ev
.Ltmp1307:
	.cfi_startproc
# BB#0:
	subl	$12, %esp
.Ltmp1308:
	.cfi_def_cfa_offset 16
	movl	16(%esp), %eax
	movl	%eax, 8(%esp)
	movl	%eax, (%esp)
	calll	_ZN2pp8ResourceD2Ev
	addl	$12, %esp
	ret
.Ltmp1309:
	.size	_ZN2pp11AudioConfigD2Ev, .Ltmp1309-_ZN2pp11AudioConfigD2Ev
.Ltmp1310:
	.cfi_endproc
.Leh_func_end142:

	.section	.text._ZN2pp11AudioConfigC2ERKS0_,"axG",@progbits,_ZN2pp11AudioConfigC2ERKS0_,comdat
	.weak	_ZN2pp11AudioConfigC2ERKS0_
	.align	16, 0x90
	.type	_ZN2pp11AudioConfigC2ERKS0_,@function
_ZN2pp11AudioConfigC2ERKS0_:            # @_ZN2pp11AudioConfigC2ERKS0_
.Ltmp1313:
	.cfi_startproc
# BB#0:
	pushl	%esi
.Ltmp1314:
	.cfi_def_cfa_offset 8
	subl	$24, %esp
.Ltmp1315:
	.cfi_def_cfa_offset 32
.Ltmp1316:
	.cfi_offset %esi, -8
	movl	32(%esp), %eax
	movl	%eax, 20(%esp)
	movl	36(%esp), %eax
	movl	%eax, 16(%esp)
	movl	20(%esp), %esi
	movl	%eax, 4(%esp)
	movl	%esi, (%esp)
	calll	_ZN2pp8ResourceC2ERKS0_
	movl	$_ZTVN2pp11AudioConfigE+8, (%esi)
	movl	16(%esp), %eax
	movl	8(%eax), %eax
	movl	%eax, 8(%esi)
	movl	16(%esp), %eax
	movl	12(%eax), %eax
	movl	%eax, 12(%esi)
	addl	$24, %esp
	popl	%esi
	ret
.Ltmp1317:
	.size	_ZN2pp11AudioConfigC2ERKS0_, .Ltmp1317-_ZN2pp11AudioConfigC2ERKS0_
.Ltmp1318:
	.cfi_endproc
.Leh_func_end143:

	.section	.text._ZN2pp11AudioConfigD0Ev,"axG",@progbits,_ZN2pp11AudioConfigD0Ev,comdat
	.weak	_ZN2pp11AudioConfigD0Ev
	.align	16, 0x90
	.type	_ZN2pp11AudioConfigD0Ev,@function
_ZN2pp11AudioConfigD0Ev:                # @_ZN2pp11AudioConfigD0Ev
.Ltmp1324:
	.cfi_startproc
	.cfi_personality 0, __gxx_personality_v0
.Leh_func_begin144:
	.cfi_lsda 0, .Lexception144
# BB#0:
	pushl	%esi
.Ltmp1325:
	.cfi_def_cfa_offset 8
	subl	$24, %esp
.Ltmp1326:
	.cfi_def_cfa_offset 32
.Ltmp1327:
	.cfi_offset %esi, -8
	movl	32(%esp), %esi
	movl	%esi, 20(%esp)
.Ltmp1319:
	movl	%esi, (%esp)
	calll	_ZN2pp11AudioConfigD1Ev
.Ltmp1320:
# BB#1:
	movl	%esi, (%esp)
	calll	_ZdlPv
	addl	$24, %esp
	popl	%esi
	ret
.LBB144_2:
.Ltmp1321:
	movl	%eax, 16(%esp)
	movl	%edx, 12(%esp)
	movl	%esi, (%esp)
	calll	_ZdlPv
	movl	16(%esp), %eax
	movl	%eax, (%esp)
	calll	_Unwind_Resume
.Ltmp1328:
	.size	_ZN2pp11AudioConfigD0Ev, .Ltmp1328-_ZN2pp11AudioConfigD0Ev
.Ltmp1329:
	.cfi_endproc
.Leh_func_end144:
	.section	.gcc_except_table,"a",@progbits
	.align	4
GCC_except_table144:
.Lexception144:
	.byte	255                     # @LPStart Encoding = omit
	.byte	0                       # @TType Encoding = absptr
	.byte	156                     # @TType base offset
	.zero	1
	.byte	3                       # Call site Encoding = udata4
	.byte	26                      # Call site table length
.Lset323 = .Ltmp1319-.Leh_func_begin144 # >> Call Site 1 <<
	.long	.Lset323
.Lset324 = .Ltmp1320-.Ltmp1319          #   Call between .Ltmp1319 and .Ltmp1320
	.long	.Lset324
.Lset325 = .Ltmp1321-.Leh_func_begin144 #     jumps to .Ltmp1321
	.long	.Lset325
	.byte	0                       #   On action: cleanup
.Lset326 = .Ltmp1320-.Leh_func_begin144 # >> Call Site 2 <<
	.long	.Lset326
.Lset327 = .Leh_func_end144-.Ltmp1320   #   Call between .Ltmp1320 and .Leh_func_end144
	.long	.Lset327
	.long	0                       #     has no landing pad
	.byte	0                       #   On action: cleanup
	.align	4

	.text
	.globl	_ZN2pp3VarC2Ev
	.align	16, 0x90
	.type	_ZN2pp3VarC2Ev,@function
_ZN2pp3VarC2Ev:                         # @_ZN2pp3VarC2Ev
# BB#0:
	pushl	%eax
	movl	8(%esp), %eax
	movl	%eax, (%esp)
	movl	$_ZTVN2pp3VarE+8, (%eax)
	movl	$0, 8(%eax)
	movl	$0, 4(%eax)
	movl	$0, 16(%eax)
	movl	$0, 12(%eax)
	movl	$0, 4(%eax)
	movb	$1, 20(%eax)
	popl	%eax
	ret
.Ltmp1330:
	.size	_ZN2pp3VarC2Ev, .Ltmp1330-_ZN2pp3VarC2Ev

	.globl	_ZN2pp3VarC2ENS0_4NullE
	.align	16, 0x90
	.type	_ZN2pp3VarC2ENS0_4NullE,@function
_ZN2pp3VarC2ENS0_4NullE:                # @_ZN2pp3VarC2ENS0_4NullE
# BB#0:
	pushl	%eax
	movl	8(%esp), %eax
	movl	%eax, (%esp)
	movl	$_ZTVN2pp3VarE+8, (%eax)
	movl	$0, 8(%eax)
	movl	$0, 4(%eax)
	movl	$0, 16(%eax)
	movl	$0, 12(%eax)
	movl	$1, 4(%eax)
	movb	$1, 20(%eax)
	popl	%eax
	ret
.Ltmp1331:
	.size	_ZN2pp3VarC2ENS0_4NullE, .Ltmp1331-_ZN2pp3VarC2ENS0_4NullE

	.globl	_ZN2pp3VarC2Eb
	.align	16, 0x90
	.type	_ZN2pp3VarC2Eb,@function
_ZN2pp3VarC2Eb:                         # @_ZN2pp3VarC2Eb
.Ltmp1334:
	.cfi_startproc
# BB#0:
	pushl	%esi
.Ltmp1335:
	.cfi_def_cfa_offset 8
	subl	$24, %esp
.Ltmp1336:
	.cfi_def_cfa_offset 32
.Ltmp1337:
	.cfi_offset %esi, -8
	movl	32(%esp), %eax
	movl	%eax, 20(%esp)
	movb	36(%esp), %al
	movb	%al, 19(%esp)
	movl	20(%esp), %esi
	movl	$_ZTVN2pp3VarE+8, (%esi)
	movl	$2, 4(%esi)
	movl	$0, 8(%esi)
	movzbl	19(%esp), %eax
	andl	$1, %eax
	movl	%eax, (%esp)
	calll	_Z11PP_FromBoolb
	movl	%eax, 12(%esi)
	movb	$1, 20(%esi)
	addl	$24, %esp
	popl	%esi
	ret
.Ltmp1338:
	.size	_ZN2pp3VarC2Eb, .Ltmp1338-_ZN2pp3VarC2Eb
.Ltmp1339:
	.cfi_endproc
.Leh_func_end147:

	.globl	_ZN2pp3VarC2Ei
	.align	16, 0x90
	.type	_ZN2pp3VarC2Ei,@function
_ZN2pp3VarC2Ei:                         # @_ZN2pp3VarC2Ei
# BB#0:
	subl	$8, %esp
	movl	12(%esp), %eax
	movl	%eax, 4(%esp)
	movl	16(%esp), %eax
	movl	%eax, (%esp)
	movl	4(%esp), %eax
	movl	$_ZTVN2pp3VarE+8, (%eax)
	movl	$3, 4(%eax)
	movl	$0, 8(%eax)
	movl	(%esp), %ecx
	movl	%ecx, 12(%eax)
	movb	$1, 20(%eax)
	addl	$8, %esp
	ret
.Ltmp1340:
	.size	_ZN2pp3VarC2Ei, .Ltmp1340-_ZN2pp3VarC2Ei

	.globl	_ZN2pp3VarC2Ed
	.align	16, 0x90
	.type	_ZN2pp3VarC2Ed,@function
_ZN2pp3VarC2Ed:                         # @_ZN2pp3VarC2Ed
# BB#0:
	subl	$12, %esp
	movl	16(%esp), %eax
	movl	%eax, 8(%esp)
	movsd	20(%esp), %xmm0
	movsd	%xmm0, (%esp)
	movl	8(%esp), %eax
	movl	$_ZTVN2pp3VarE+8, (%eax)
	movl	$4, 4(%eax)
	movl	$0, 8(%eax)
	movsd	(%esp), %xmm0
	movsd	%xmm0, 12(%eax)
	movb	$1, 20(%eax)
	addl	$12, %esp
	ret
.Ltmp1341:
	.size	_ZN2pp3VarC2Ed, .Ltmp1341-_ZN2pp3VarC2Ed

	.globl	_ZN2pp3VarC2EPKc
	.align	16, 0x90
	.type	_ZN2pp3VarC2EPKc,@function
_ZN2pp3VarC2EPKc:                       # @_ZN2pp3VarC2EPKc
.Ltmp1344:
	.cfi_startproc
# BB#0:
	pushl	%esi
.Ltmp1345:
	.cfi_def_cfa_offset 8
	subl	$56, %esp
.Ltmp1346:
	.cfi_def_cfa_offset 64
.Ltmp1347:
	.cfi_offset %esi, -8
	movl	64(%esp), %eax
	movl	%eax, 52(%esp)
	movl	68(%esp), %eax
	movl	%eax, 48(%esp)
	movl	52(%esp), %esi
	movl	$_ZTVN2pp3VarE+8, (%esi)
	cmpl	$0, 48(%esp)
	jne	.LBB150_2
# BB#1:
	xorl	%eax, %eax
	jmp	.LBB150_3
.LBB150_2:
	movl	48(%esp), %eax
	movl	%eax, (%esp)
	calll	strlen
.LBB150_3:
	movl	%eax, 44(%esp)
	movl	48(%esp), %ecx
	movl	%eax, 8(%esp)
	movl	%ecx, 4(%esp)
	leal	24(%esp), %eax
	movl	%eax, (%esp)
	calll	_ZN2pp12_GLOBAL__N_117VarFromUtf8HelperEPKcj
	subl	$4, %esp
	movsd	24(%esp), %xmm0
	movsd	32(%esp), %xmm1
	movsd	%xmm1, 12(%esi)
	movsd	%xmm0, 4(%esi)
	movb	$1, 20(%esi)
	addl	$56, %esp
	popl	%esi
	ret
.Ltmp1348:
	.size	_ZN2pp3VarC2EPKc, .Ltmp1348-_ZN2pp3VarC2EPKc
.Ltmp1349:
	.cfi_endproc
.Leh_func_end150:

	.align	16, 0x90
	.type	_ZN2pp12_GLOBAL__N_117VarFromUtf8HelperEPKcj,@function
_ZN2pp12_GLOBAL__N_117VarFromUtf8HelperEPKcj: # @_ZN2pp12_GLOBAL__N_117VarFromUtf8HelperEPKcj
.Ltmp1353:
	.cfi_startproc
# BB#0:
	pushl	%edi
.Ltmp1354:
	.cfi_def_cfa_offset 8
	pushl	%esi
.Ltmp1355:
	.cfi_def_cfa_offset 12
	subl	$36, %esp
.Ltmp1356:
	.cfi_def_cfa_offset 48
.Ltmp1357:
	.cfi_offset %esi, -12
.Ltmp1358:
	.cfi_offset %edi, -8
	movl	52(%esp), %eax
	movl	%eax, 32(%esp)
	movl	56(%esp), %eax
	movl	%eax, 28(%esp)
	calll	_ZN2pp12_GLOBAL__N_113has_interfaceI11PPB_Var_1_1EEbv
	movl	48(%esp), %esi
	testb	%al, %al
	je	.LBB151_2
# BB#1:
	calll	_ZN2pp12_GLOBAL__N_113get_interfaceI11PPB_Var_1_1EEPKT_v
	movl	32(%esp), %ecx
	movl	28(%esp), %edx
	movl	%edx, 8(%esp)
	movl	%ecx, 4(%esp)
	movl	%esi, (%esp)
	calll	*8(%eax)
	jmp	.LBB151_5
.LBB151_2:
	calll	_ZN2pp12_GLOBAL__N_113has_interfaceI11PPB_Var_1_0EEbv
	cmpb	$1, %al
	jne	.LBB151_4
# BB#3:
	calll	_ZN2pp12_GLOBAL__N_113get_interfaceI11PPB_Var_1_0EEPKT_v
	movl	8(%eax), %edi
	calll	_ZN2pp6Module3GetEv
	movl	%eax, (%esp)
	calll	_ZNK2pp6Module9pp_moduleEv
	movl	32(%esp), %ecx
	movl	28(%esp), %edx
	movl	%edx, 12(%esp)
	movl	%ecx, 8(%esp)
	movl	%eax, 4(%esp)
	movl	%esi, (%esp)
	calll	*%edi
	jmp	.LBB151_5
.LBB151_4:
	movl	%esi, (%esp)
	calll	_Z11PP_MakeNullv
.LBB151_5:
	subl	$4, %esp
	addl	$36, %esp
	popl	%esi
	popl	%edi
	ret	$4
.Ltmp1359:
	.size	_ZN2pp12_GLOBAL__N_117VarFromUtf8HelperEPKcj, .Ltmp1359-_ZN2pp12_GLOBAL__N_117VarFromUtf8HelperEPKcj
.Ltmp1360:
	.cfi_endproc
.Leh_func_end151:

	.globl	_ZN2pp3VarC2ERKSs
	.align	16, 0x90
	.type	_ZN2pp3VarC2ERKSs,@function
_ZN2pp3VarC2ERKSs:                      # @_ZN2pp3VarC2ERKSs
.Ltmp1364:
	.cfi_startproc
# BB#0:
	pushl	%edi
.Ltmp1365:
	.cfi_def_cfa_offset 8
	pushl	%esi
.Ltmp1366:
	.cfi_def_cfa_offset 12
	subl	$52, %esp
.Ltmp1367:
	.cfi_def_cfa_offset 64
.Ltmp1368:
	.cfi_offset %esi, -12
.Ltmp1369:
	.cfi_offset %edi, -8
	movl	64(%esp), %eax
	movl	%eax, 48(%esp)
	movl	68(%esp), %eax
	movl	%eax, 44(%esp)
	movl	48(%esp), %edi
	movl	$_ZTVN2pp3VarE+8, (%edi)
	movl	44(%esp), %eax
	movl	%eax, (%esp)
	calll	_ZNKSs5c_strEv
	movl	%eax, %esi
	movl	44(%esp), %eax
	movl	%eax, (%esp)
	calll	_ZNKSs4sizeEv
	movl	%eax, 8(%esp)
	movl	%esi, 4(%esp)
	leal	24(%esp), %eax
	movl	%eax, (%esp)
	calll	_ZN2pp12_GLOBAL__N_117VarFromUtf8HelperEPKcj
	subl	$4, %esp
	movsd	24(%esp), %xmm0
	movsd	32(%esp), %xmm1
	movsd	%xmm1, 12(%edi)
	movsd	%xmm0, 4(%edi)
	movb	$1, 20(%edi)
	addl	$52, %esp
	popl	%esi
	popl	%edi
	ret
.Ltmp1370:
	.size	_ZN2pp3VarC2ERKSs, .Ltmp1370-_ZN2pp3VarC2ERKSs
.Ltmp1371:
	.cfi_endproc
.Leh_func_end152:

	.globl	_ZN2pp3VarC2ERKS0_
	.align	16, 0x90
	.type	_ZN2pp3VarC2ERKS0_,@function
_ZN2pp3VarC2ERKS0_:                     # @_ZN2pp3VarC2ERKS0_
.Ltmp1374:
	.cfi_startproc
# BB#0:
	pushl	%esi
.Ltmp1375:
	.cfi_def_cfa_offset 8
	subl	$40, %esp
.Ltmp1376:
	.cfi_def_cfa_offset 48
.Ltmp1377:
	.cfi_offset %esi, -8
	movl	48(%esp), %eax
	movl	%eax, 36(%esp)
	movl	52(%esp), %eax
	movl	%eax, 32(%esp)
	movl	36(%esp), %esi
	movl	$_ZTVN2pp3VarE+8, (%esi)
	movl	32(%esp), %eax
	movsd	4(%eax), %xmm0
	movsd	12(%eax), %xmm1
	movsd	%xmm1, 12(%esi)
	movsd	%xmm0, 4(%esi)
	movb	$1, 20(%esi)
	leal	4(%esi), %eax
	movl	%eax, (%esp)
	calll	_ZN2pp12_GLOBAL__N_116NeedsRefcountingERK6PP_Var
	testb	%al, %al
	je	.LBB153_4
# BB#1:
	calll	_ZN2pp12_GLOBAL__N_113has_interfaceI11PPB_Var_1_0EEbv
	cmpb	$1, %al
	jne	.LBB153_3
# BB#2:
	calll	_ZN2pp12_GLOBAL__N_113get_interfaceI11PPB_Var_1_0EEPKT_v
	movl	(%eax), %eax
	movsd	4(%esi), %xmm0
	movsd	12(%esi), %xmm1
	movsd	%xmm1, 24(%esp)
	movsd	%xmm0, 16(%esp)
	movsd	16(%esp), %xmm0
	movsd	24(%esp), %xmm1
	movsd	%xmm1, 8(%esp)
	movsd	%xmm0, (%esp)
	calll	*%eax
	jmp	.LBB153_4
.LBB153_3:
	movl	$1, 4(%esi)
.LBB153_4:
	addl	$40, %esp
	popl	%esi
	ret
.Ltmp1378:
	.size	_ZN2pp3VarC2ERKS0_, .Ltmp1378-_ZN2pp3VarC2ERKS0_
.Ltmp1379:
	.cfi_endproc
.Leh_func_end153:

	.align	16, 0x90
	.type	_ZN2pp12_GLOBAL__N_116NeedsRefcountingERK6PP_Var,@function
_ZN2pp12_GLOBAL__N_116NeedsRefcountingERK6PP_Var: # @_ZN2pp12_GLOBAL__N_116NeedsRefcountingERK6PP_Var
# BB#0:
	pushl	%eax
	movl	8(%esp), %eax
	movl	%eax, (%esp)
	cmpl	$4, (%eax)
	setg	%al
	movzbl	%al, %eax
	popl	%edx
	ret
.Ltmp1380:
	.size	_ZN2pp12_GLOBAL__N_116NeedsRefcountingERK6PP_Var, .Ltmp1380-_ZN2pp12_GLOBAL__N_116NeedsRefcountingERK6PP_Var

	.align	16, 0x90
	.type	_ZN2pp12_GLOBAL__N_113has_interfaceI11PPB_Var_1_0EEbv,@function
_ZN2pp12_GLOBAL__N_113has_interfaceI11PPB_Var_1_0EEbv: # @_ZN2pp12_GLOBAL__N_113has_interfaceI11PPB_Var_1_0EEbv
.Ltmp1382:
	.cfi_startproc
# BB#0:
	subl	$12, %esp
.Ltmp1383:
	.cfi_def_cfa_offset 16
	calll	_ZN2pp12_GLOBAL__N_113get_interfaceI11PPB_Var_1_0EEPKT_v
	testl	%eax, %eax
	setne	%al
	movzbl	%al, %eax
	addl	$12, %esp
	ret
.Ltmp1384:
	.size	_ZN2pp12_GLOBAL__N_113has_interfaceI11PPB_Var_1_0EEbv, .Ltmp1384-_ZN2pp12_GLOBAL__N_113has_interfaceI11PPB_Var_1_0EEbv
.Ltmp1385:
	.cfi_endproc
.Leh_func_end155:

	.align	16, 0x90
	.type	_ZN2pp12_GLOBAL__N_113get_interfaceI11PPB_Var_1_0EEPKT_v,@function
_ZN2pp12_GLOBAL__N_113get_interfaceI11PPB_Var_1_0EEPKT_v: # @_ZN2pp12_GLOBAL__N_113get_interfaceI11PPB_Var_1_0EEPKT_v
.Ltmp1395:
	.cfi_startproc
	.cfi_personality 0, __gxx_personality_v0
.Leh_func_begin156:
	.cfi_lsda 0, .Lexception156
# BB#0:
	pushl	%esi
.Ltmp1396:
	.cfi_def_cfa_offset 8
	subl	$24, %esp
.Ltmp1397:
	.cfi_def_cfa_offset 32
.Ltmp1398:
	.cfi_offset %esi, -8
	movb	_ZGVZN2pp12_GLOBAL__N_113get_interfaceI11PPB_Var_1_0EEPKT_vE5funcs, %al
	testb	%al, %al
	jne	.LBB156_6
# BB#1:
	movl	$_ZGVZN2pp12_GLOBAL__N_113get_interfaceI11PPB_Var_1_0EEPKT_vE5funcs, (%esp)
	calll	__cxa_guard_acquire
	testl	%eax, %eax
	je	.LBB156_6
# BB#2:
.Ltmp1386:
	calll	_ZN2pp6Module3GetEv
	movl	%eax, %esi
.Ltmp1387:
# BB#3:
.Ltmp1388:
	calll	_ZN2pp12_GLOBAL__N_114interface_nameI11PPB_Var_1_0EEPKcv
.Ltmp1389:
# BB#4:
.Ltmp1390:
	movl	%eax, 4(%esp)
	movl	%esi, (%esp)
	calll	_ZN2pp6Module19GetBrowserInterfaceEPKc
.Ltmp1391:
# BB#5:
	movl	%eax, _ZZN2pp12_GLOBAL__N_113get_interfaceI11PPB_Var_1_0EEPKT_vE5funcs
	movl	$_ZGVZN2pp12_GLOBAL__N_113get_interfaceI11PPB_Var_1_0EEPKT_vE5funcs, (%esp)
	calll	__cxa_guard_release
.LBB156_6:
	movl	_ZZN2pp12_GLOBAL__N_113get_interfaceI11PPB_Var_1_0EEPKT_vE5funcs, %eax
	addl	$24, %esp
	popl	%esi
	ret
.LBB156_7:
.Ltmp1392:
	movl	%eax, 20(%esp)
	movl	%edx, 16(%esp)
	movl	$_ZGVZN2pp12_GLOBAL__N_113get_interfaceI11PPB_Var_1_0EEPKT_vE5funcs, (%esp)
	calll	__cxa_guard_abort
	movl	20(%esp), %eax
	movl	%eax, (%esp)
	calll	_Unwind_Resume
.Ltmp1399:
	.size	_ZN2pp12_GLOBAL__N_113get_interfaceI11PPB_Var_1_0EEPKT_v, .Ltmp1399-_ZN2pp12_GLOBAL__N_113get_interfaceI11PPB_Var_1_0EEPKT_v
.Ltmp1400:
	.cfi_endproc
.Leh_func_end156:
	.section	.gcc_except_table,"a",@progbits
	.align	4
GCC_except_table156:
.Lexception156:
	.byte	255                     # @LPStart Encoding = omit
	.byte	0                       # @TType Encoding = absptr
	.byte	41                      # @TType base offset
	.byte	3                       # Call site Encoding = udata4
	.byte	39                      # Call site table length
.Lset328 = .Leh_func_begin156-.Leh_func_begin156 # >> Call Site 1 <<
	.long	.Lset328
.Lset329 = .Ltmp1386-.Leh_func_begin156 #   Call between .Leh_func_begin156 and .Ltmp1386
	.long	.Lset329
	.long	0                       #     has no landing pad
	.byte	0                       #   On action: cleanup
.Lset330 = .Ltmp1386-.Leh_func_begin156 # >> Call Site 2 <<
	.long	.Lset330
.Lset331 = .Ltmp1391-.Ltmp1386          #   Call between .Ltmp1386 and .Ltmp1391
	.long	.Lset331
.Lset332 = .Ltmp1392-.Leh_func_begin156 #     jumps to .Ltmp1392
	.long	.Lset332
	.byte	0                       #   On action: cleanup
.Lset333 = .Ltmp1391-.Leh_func_begin156 # >> Call Site 3 <<
	.long	.Lset333
.Lset334 = .Leh_func_end156-.Ltmp1391   #   Call between .Ltmp1391 and .Leh_func_end156
	.long	.Lset334
	.long	0                       #     has no landing pad
	.byte	0                       #   On action: cleanup
	.align	4

	.text
	.globl	_ZN2pp3VarD0Ev
	.align	16, 0x90
	.type	_ZN2pp3VarD0Ev,@function
_ZN2pp3VarD0Ev:                         # @_ZN2pp3VarD0Ev
.Ltmp1406:
	.cfi_startproc
	.cfi_personality 0, __gxx_personality_v0
.Leh_func_begin157:
	.cfi_lsda 0, .Lexception157
# BB#0:
	pushl	%esi
.Ltmp1407:
	.cfi_def_cfa_offset 8
	subl	$24, %esp
.Ltmp1408:
	.cfi_def_cfa_offset 32
.Ltmp1409:
	.cfi_offset %esi, -8
	movl	32(%esp), %esi
	movl	%esi, 20(%esp)
.Ltmp1401:
	movl	%esi, (%esp)
	calll	_ZN2pp3VarD1Ev
.Ltmp1402:
# BB#1:
	movl	%esi, (%esp)
	calll	_ZdlPv
	addl	$24, %esp
	popl	%esi
	ret
.LBB157_2:
.Ltmp1403:
	movl	%eax, 16(%esp)
	movl	%edx, 12(%esp)
	movl	%esi, (%esp)
	calll	_ZdlPv
	movl	16(%esp), %eax
	movl	%eax, (%esp)
	calll	_Unwind_Resume
.Ltmp1410:
	.size	_ZN2pp3VarD0Ev, .Ltmp1410-_ZN2pp3VarD0Ev
.Ltmp1411:
	.cfi_endproc
.Leh_func_end157:
	.section	.gcc_except_table,"a",@progbits
	.align	4
GCC_except_table157:
.Lexception157:
	.byte	255                     # @LPStart Encoding = omit
	.byte	0                       # @TType Encoding = absptr
	.byte	156                     # @TType base offset
	.zero	1
	.byte	3                       # Call site Encoding = udata4
	.byte	26                      # Call site table length
.Lset335 = .Ltmp1401-.Leh_func_begin157 # >> Call Site 1 <<
	.long	.Lset335
.Lset336 = .Ltmp1402-.Ltmp1401          #   Call between .Ltmp1401 and .Ltmp1402
	.long	.Lset336
.Lset337 = .Ltmp1403-.Leh_func_begin157 #     jumps to .Ltmp1403
	.long	.Lset337
	.byte	0                       #   On action: cleanup
.Lset338 = .Ltmp1402-.Leh_func_begin157 # >> Call Site 2 <<
	.long	.Lset338
.Lset339 = .Leh_func_end157-.Ltmp1402   #   Call between .Ltmp1402 and .Leh_func_end157
	.long	.Lset339
	.long	0                       #     has no landing pad
	.byte	0                       #   On action: cleanup
	.align	4

	.text
	.globl	_ZN2pp3VarD2Ev
	.align	16, 0x90
	.type	_ZN2pp3VarD2Ev,@function
_ZN2pp3VarD2Ev:                         # @_ZN2pp3VarD2Ev
.Ltmp1414:
	.cfi_startproc
# BB#0:
	pushl	%esi
.Ltmp1415:
	.cfi_def_cfa_offset 8
	subl	$40, %esp
.Ltmp1416:
	.cfi_def_cfa_offset 48
.Ltmp1417:
	.cfi_offset %esi, -8
	movl	48(%esp), %esi
	movl	%esi, 36(%esp)
	movl	$_ZTVN2pp3VarE+8, (%esi)
	leal	4(%esi), %eax
	movl	%eax, (%esp)
	calll	_ZN2pp12_GLOBAL__N_116NeedsRefcountingERK6PP_Var
	testb	%al, %al
	je	.LBB158_4
# BB#1:
	testb	$1, 20(%esi)
	je	.LBB158_4
# BB#2:
	calll	_ZN2pp12_GLOBAL__N_113has_interfaceI11PPB_Var_1_0EEbv
	cmpb	$1, %al
	jne	.LBB158_4
# BB#3:
	calll	_ZN2pp12_GLOBAL__N_113get_interfaceI11PPB_Var_1_0EEPKT_v
	movl	4(%eax), %eax
	movsd	4(%esi), %xmm0
	movsd	12(%esi), %xmm1
	movsd	%xmm1, 24(%esp)
	movsd	%xmm0, 16(%esp)
	movsd	16(%esp), %xmm0
	movsd	24(%esp), %xmm1
	movsd	%xmm1, 8(%esp)
	movsd	%xmm0, (%esp)
	calll	*%eax
.LBB158_4:
	addl	$40, %esp
	popl	%esi
	ret
.Ltmp1418:
	.size	_ZN2pp3VarD2Ev, .Ltmp1418-_ZN2pp3VarD2Ev
.Ltmp1419:
	.cfi_endproc
.Leh_func_end158:

	.globl	_ZN2pp3VaraSERKS0_
	.align	16, 0x90
	.type	_ZN2pp3VaraSERKS0_,@function
_ZN2pp3VaraSERKS0_:                     # @_ZN2pp3VaraSERKS0_
.Ltmp1422:
	.cfi_startproc
# BB#0:
	pushl	%esi
.Ltmp1423:
	.cfi_def_cfa_offset 8
	subl	$72, %esp
.Ltmp1424:
	.cfi_def_cfa_offset 80
.Ltmp1425:
	.cfi_offset %esi, -8
	movl	80(%esp), %eax
	movl	%eax, 64(%esp)
	movl	84(%esp), %eax
	movl	%eax, 60(%esp)
	movl	64(%esp), %esi
	cmpl	%eax, %esi
	je	.LBB159_7
# BB#1:
	movb	20(%esi), %al
	andb	$1, %al
	movb	%al, 59(%esp)
	movb	$1, 20(%esi)
	movl	60(%esp), %eax
	addl	$4, %eax
	movl	%eax, (%esp)
	calll	_ZN2pp12_GLOBAL__N_116NeedsRefcountingERK6PP_Var
	cmpb	$1, %al
	jne	.LBB159_3
# BB#2:
	calll	_ZN2pp12_GLOBAL__N_113get_interfaceI11PPB_Var_1_0EEPKT_v
	movl	(%eax), %eax
	movl	60(%esp), %ecx
	movsd	4(%ecx), %xmm0
	movsd	12(%ecx), %xmm1
	movsd	%xmm1, 48(%esp)
	movsd	%xmm0, 40(%esp)
	movsd	40(%esp), %xmm0
	movsd	48(%esp), %xmm1
	movsd	%xmm1, 8(%esp)
	movsd	%xmm0, (%esp)
	calll	*%eax
.LBB159_3:
	leal	4(%esi), %eax
	movl	%eax, (%esp)
	calll	_ZN2pp12_GLOBAL__N_116NeedsRefcountingERK6PP_Var
	cmpb	$1, %al
	jne	.LBB159_6
# BB#4:
	testb	$1, 59(%esp)
	je	.LBB159_6
# BB#5:
	calll	_ZN2pp12_GLOBAL__N_113get_interfaceI11PPB_Var_1_0EEPKT_v
	movl	4(%eax), %eax
	movsd	4(%esi), %xmm0
	movsd	12(%esi), %xmm1
	movsd	%xmm1, 32(%esp)
	movsd	%xmm0, 24(%esp)
	movsd	24(%esp), %xmm0
	movsd	32(%esp), %xmm1
	movsd	%xmm1, 8(%esp)
	movsd	%xmm0, (%esp)
	calll	*%eax
.LBB159_6:
	movl	60(%esp), %eax
	movsd	4(%eax), %xmm0
	movsd	12(%eax), %xmm1
	movsd	%xmm1, 12(%esi)
	movsd	%xmm0, 4(%esi)
.LBB159_7:
	movl	%esi, 68(%esp)
	movl	68(%esp), %eax
	addl	$72, %esp
	popl	%esi
	ret
.Ltmp1426:
	.size	_ZN2pp3VaraSERKS0_, .Ltmp1426-_ZN2pp3VaraSERKS0_
.Ltmp1427:
	.cfi_endproc
.Leh_func_end159:

	.globl	_ZNK2pp3VareqERKS0_
	.align	16, 0x90
	.type	_ZNK2pp3VareqERKS0_,@function
_ZNK2pp3VareqERKS0_:                    # @_ZNK2pp3VareqERKS0_
.Ltmp1445:
	.cfi_startproc
	.cfi_personality 0, __gxx_personality_v0
.Leh_func_begin160:
	.cfi_lsda 0, .Lexception160
# BB#0:
	pushl	%ebx
.Ltmp1446:
	.cfi_def_cfa_offset 8
	pushl	%edi
.Ltmp1447:
	.cfi_def_cfa_offset 12
	pushl	%esi
.Ltmp1448:
	.cfi_def_cfa_offset 16
	subl	$64, %esp
.Ltmp1449:
	.cfi_def_cfa_offset 80
.Ltmp1450:
	.cfi_offset %esi, -16
.Ltmp1451:
	.cfi_offset %edi, -12
.Ltmp1452:
	.cfi_offset %ebx, -8
	movl	80(%esp), %eax
	movl	%eax, 56(%esp)
	movl	84(%esp), %ecx
	movl	%ecx, 52(%esp)
	movl	56(%esp), %eax
	movl	4(%eax), %edx
	cmpl	4(%ecx), %edx
	je	.LBB160_2
# BB#1:
	movb	$0, 63(%esp)
	jmp	.LBB160_21
.LBB160_2:
	movl	4(%eax), %ecx
	cmpl	$5, %ecx
	ja	.LBB160_19
# BB#3:
	jmpl	*.LJTI160_0(,%ecx,4)
.LBB160_4:
	movb	$1, 63(%esp)
	jmp	.LBB160_21
.LBB160_5:
	movl	%eax, (%esp)
	calll	_ZNK2pp3Var6AsBoolEv
	movl	52(%esp), %ecx
	movl	%ecx, (%esp)
	movzbl	%al, %esi
	calll	_ZNK2pp3Var6AsBoolEv
	movzbl	%al, %eax
	cmpl	%eax, %esi
	jmp	.LBB160_20
.LBB160_6:
	movl	%eax, (%esp)
	calll	_ZNK2pp3Var5AsIntEv
	movl	%eax, %esi
	movl	52(%esp), %eax
	movl	%eax, (%esp)
	calll	_ZNK2pp3Var5AsIntEv
	cmpl	%eax, %esi
	jmp	.LBB160_20
.LBB160_8:
	movl	%eax, (%esp)
	calll	_ZNK2pp3Var8AsDoubleEv
	movl	52(%esp), %eax
	movl	%eax, (%esp)
	fstpl	24(%esp)
	calll	_ZNK2pp3Var8AsDoubleEv
	fstpl	16(%esp)
	movsd	24(%esp), %xmm0
	ucomisd	16(%esp), %xmm0
	setnp	%cl
	sete	%al
	andb	%cl, %al
	movb	%al, 63(%esp)
	jmp	.LBB160_21
.LBB160_9:
	movl	12(%eax), %ecx
	movl	16(%eax), %edx
	movl	52(%esp), %esi
	xorl	16(%esi), %edx
	xorl	12(%esi), %ecx
	orl	%edx, %ecx
	jne	.LBB160_11
# BB#10:
	movb	$1, 63(%esp)
	jmp	.LBB160_21
.LBB160_11:
	movl	%eax, 4(%esp)
	leal	48(%esp), %esi
	movl	%esi, (%esp)
	calll	_ZNK2pp3Var8AsStringEv
	subl	$4, %esp
	movl	52(%esp), %eax
.Ltmp1428:
	movl	%eax, 4(%esp)
	leal	40(%esp), %edi
	movl	%edi, (%esp)
	calll	_ZNK2pp3Var8AsStringEv
	subl	$4, %esp
.Ltmp1429:
# BB#12:
.Ltmp1430:
	movl	%edi, 4(%esp)
	movl	%esi, (%esp)
	calll	_ZSteqIcEN9__gnu_cxx11__enable_ifIXsr9__is_charIT_EE7__valueEbE6__typeERKSbIS2_St11char_traitsIS2_ESaIS2_EESA_
	movb	%al, %bl
.Ltmp1431:
# BB#13:
.Ltmp1435:
	movl	%edi, (%esp)
	calll	_ZNSsD1Ev
.Ltmp1436:
# BB#14:
	movl	%esi, (%esp)
	calll	_ZNSsD1Ev
	movb	%bl, 63(%esp)
	jmp	.LBB160_21
.LBB160_15:
.Ltmp1437:
	movl	%eax, 36(%esp)
	movl	%edx, 32(%esp)
	jmp	.LBB160_17
.LBB160_16:
.Ltmp1432:
	movl	%eax, 36(%esp)
	movl	%edx, 32(%esp)
.Ltmp1433:
	movl	%edi, (%esp)
	calll	_ZNSsD1Ev
.Ltmp1434:
.LBB160_17:
.Ltmp1438:
	movl	%esi, (%esp)
	calll	_ZNSsD1Ev
.Ltmp1439:
# BB#18:
	movl	36(%esp), %eax
	movl	%eax, (%esp)
	calll	_Unwind_Resume
.LBB160_19:
	movl	12(%eax), %ecx
	movl	16(%eax), %eax
	movl	52(%esp), %edx
	xorl	16(%edx), %eax
	xorl	12(%edx), %ecx
	orl	%eax, %ecx
.LBB160_20:
	sete	63(%esp)
.LBB160_21:
	movzbl	63(%esp), %eax
	addl	$64, %esp
	popl	%esi
	popl	%edi
	popl	%ebx
	ret
.LBB160_22:
.Ltmp1440:
	calll	_ZSt9terminatev
.Ltmp1453:
	.size	_ZNK2pp3VareqERKS0_, .Ltmp1453-_ZNK2pp3VareqERKS0_
.Ltmp1454:
	.cfi_endproc
.Leh_func_end160:
	.section	.gcc_except_table,"a",@progbits
	.align	4
GCC_except_table160:
.Lexception160:
	.byte	255                     # @LPStart Encoding = omit
	.byte	0                       # @TType Encoding = absptr
	.byte	227                     # @TType base offset
	.zero	1,128
	.zero	1
	.byte	3                       # Call site Encoding = udata4
	.byte	91                      # Call site table length
.Lset340 = .Leh_func_begin160-.Leh_func_begin160 # >> Call Site 1 <<
	.long	.Lset340
.Lset341 = .Ltmp1428-.Leh_func_begin160 #   Call between .Leh_func_begin160 and .Ltmp1428
	.long	.Lset341
	.long	0                       #     has no landing pad
	.byte	0                       #   On action: cleanup
.Lset342 = .Ltmp1428-.Leh_func_begin160 # >> Call Site 2 <<
	.long	.Lset342
.Lset343 = .Ltmp1429-.Ltmp1428          #   Call between .Ltmp1428 and .Ltmp1429
	.long	.Lset343
.Lset344 = .Ltmp1437-.Leh_func_begin160 #     jumps to .Ltmp1437
	.long	.Lset344
	.byte	0                       #   On action: cleanup
.Lset345 = .Ltmp1430-.Leh_func_begin160 # >> Call Site 3 <<
	.long	.Lset345
.Lset346 = .Ltmp1431-.Ltmp1430          #   Call between .Ltmp1430 and .Ltmp1431
	.long	.Lset346
.Lset347 = .Ltmp1432-.Leh_func_begin160 #     jumps to .Ltmp1432
	.long	.Lset347
	.byte	0                       #   On action: cleanup
.Lset348 = .Ltmp1435-.Leh_func_begin160 # >> Call Site 4 <<
	.long	.Lset348
.Lset349 = .Ltmp1436-.Ltmp1435          #   Call between .Ltmp1435 and .Ltmp1436
	.long	.Lset349
.Lset350 = .Ltmp1437-.Leh_func_begin160 #     jumps to .Ltmp1437
	.long	.Lset350
	.byte	0                       #   On action: cleanup
.Lset351 = .Ltmp1436-.Leh_func_begin160 # >> Call Site 5 <<
	.long	.Lset351
.Lset352 = .Ltmp1433-.Ltmp1436          #   Call between .Ltmp1436 and .Ltmp1433
	.long	.Lset352
	.long	0                       #     has no landing pad
	.byte	0                       #   On action: cleanup
.Lset353 = .Ltmp1433-.Leh_func_begin160 # >> Call Site 6 <<
	.long	.Lset353
.Lset354 = .Ltmp1439-.Ltmp1433          #   Call between .Ltmp1433 and .Ltmp1439
	.long	.Lset354
.Lset355 = .Ltmp1440-.Leh_func_begin160 #     jumps to .Ltmp1440
	.long	.Lset355
	.byte	1                       #   On action: 1
.Lset356 = .Ltmp1439-.Leh_func_begin160 # >> Call Site 7 <<
	.long	.Lset356
.Lset357 = .Leh_func_end160-.Ltmp1439   #   Call between .Ltmp1439 and .Leh_func_end160
	.long	.Lset357
	.long	0                       #     has no landing pad
	.byte	0                       #   On action: cleanup
	.byte	1                       # >> Action Record 1 <<
                                        #   Catch TypeInfo 1
	.byte	0                       #   No further actions
                                        # >> Catch TypeInfos <<
	.long	0                       # TypeInfo 1
	.align	4
	.section	.rodata,"a",@progbits
	.align	4
.LJTI160_0:
	.long	.LBB160_4
	.long	.LBB160_4
	.long	.LBB160_5
	.long	.LBB160_6
	.long	.LBB160_8
	.long	.LBB160_9

	.text
	.globl	_ZNK2pp3Var6AsBoolEv
	.align	16, 0x90
	.type	_ZNK2pp3Var6AsBoolEv,@function
_ZNK2pp3Var6AsBoolEv:                   # @_ZNK2pp3Var6AsBoolEv
.Ltmp1457:
	.cfi_startproc
# BB#0:
	pushl	%esi
.Ltmp1458:
	.cfi_def_cfa_offset 8
	subl	$24, %esp
.Ltmp1459:
	.cfi_def_cfa_offset 32
.Ltmp1460:
	.cfi_offset %esi, -8
	movl	32(%esp), %esi
	movl	%esi, 20(%esp)
	movl	%esi, (%esp)
	calll	_ZNK2pp3Var7is_boolEv
	testb	%al, %al
	je	.LBB161_2
# BB#1:
	movl	12(%esi), %eax
	movl	%eax, (%esp)
	calll	_Z9PP_ToBool7PP_Bool
	movzbl	%al, %eax
	addl	$24, %esp
	popl	%esi
	ret
.LBB161_2:
	movl	$.L__PRETTY_FUNCTION__._ZNK2pp3Var6AsBoolEv, 12(%esp)
	movl	$173, 8(%esp)
	movl	$.L.str126, 4(%esp)
	movl	$.L.str25, (%esp)
	calll	__assert_fail
.Ltmp1461:
	.size	_ZNK2pp3Var6AsBoolEv, .Ltmp1461-_ZNK2pp3Var6AsBoolEv
.Ltmp1462:
	.cfi_endproc
.Leh_func_end161:

	.globl	_ZNK2pp3Var5AsIntEv
	.align	16, 0x90
	.type	_ZNK2pp3Var5AsIntEv,@function
_ZNK2pp3Var5AsIntEv:                    # @_ZNK2pp3Var5AsIntEv
.Ltmp1465:
	.cfi_startproc
# BB#0:
	pushl	%esi
.Ltmp1466:
	.cfi_def_cfa_offset 8
	subl	$24, %esp
.Ltmp1467:
	.cfi_def_cfa_offset 32
.Ltmp1468:
	.cfi_offset %esi, -8
	movl	32(%esp), %esi
	movl	%esi, 16(%esp)
	movl	%esi, (%esp)
	calll	_ZNK2pp3Var6is_intEv
	testb	%al, %al
	je	.LBB162_2
# BB#1:
	movl	12(%esi), %eax
	jmp	.LBB162_4
.LBB162_2:
	movl	%esi, (%esp)
	calll	_ZNK2pp3Var9is_doubleEv
	cmpb	$1, %al
	jne	.LBB162_5
# BB#3:
	cvttsd2si	12(%esi), %eax
.LBB162_4:
	movl	%eax, 20(%esp)
	movl	20(%esp), %eax
	addl	$24, %esp
	popl	%esi
	ret
.LBB162_5:
	movl	$.L__PRETTY_FUNCTION__._ZNK2pp3Var5AsIntEv, 12(%esp)
	movl	$184, 8(%esp)
	movl	$.L.str126, 4(%esp)
	movl	$.L.str25, (%esp)
	calll	__assert_fail
.Ltmp1469:
	.size	_ZNK2pp3Var5AsIntEv, .Ltmp1469-_ZNK2pp3Var5AsIntEv
.Ltmp1470:
	.cfi_endproc
.Leh_func_end162:

	.globl	_ZNK2pp3Var8AsDoubleEv
	.align	16, 0x90
	.type	_ZNK2pp3Var8AsDoubleEv,@function
_ZNK2pp3Var8AsDoubleEv:                 # @_ZNK2pp3Var8AsDoubleEv
.Ltmp1473:
	.cfi_startproc
# BB#0:
	pushl	%esi
.Ltmp1474:
	.cfi_def_cfa_offset 8
	subl	$40, %esp
.Ltmp1475:
	.cfi_def_cfa_offset 48
.Ltmp1476:
	.cfi_offset %esi, -8
	movl	48(%esp), %esi
	movl	%esi, 28(%esp)
	movl	%esi, (%esp)
	calll	_ZNK2pp3Var9is_doubleEv
	testb	%al, %al
	je	.LBB163_2
# BB#1:
	movsd	12(%esi), %xmm0
	jmp	.LBB163_4
.LBB163_2:
	movl	%esi, (%esp)
	calll	_ZNK2pp3Var6is_intEv
	cmpb	$1, %al
	jne	.LBB163_5
# BB#3:
	cvtsi2sd	12(%esi), %xmm0
.LBB163_4:
	movsd	%xmm0, 32(%esp)
	fldl	32(%esp)
	addl	$40, %esp
	popl	%esi
	ret
.LBB163_5:
	movl	$.L__PRETTY_FUNCTION__._ZNK2pp3Var8AsDoubleEv, 12(%esp)
	movl	$193, 8(%esp)
	movl	$.L.str126, 4(%esp)
	movl	$.L.str25, (%esp)
	calll	__assert_fail
.Ltmp1477:
	.size	_ZNK2pp3Var8AsDoubleEv, .Ltmp1477-_ZNK2pp3Var8AsDoubleEv
.Ltmp1478:
	.cfi_endproc
.Leh_func_end163:

	.section	.text._ZSteqIcEN9__gnu_cxx11__enable_ifIXsr9__is_charIT_EE7__valueEbE6__typeERKSbIS2_St11char_traitsIS2_ESaIS2_EESA_,"axG",@progbits,_ZSteqIcEN9__gnu_cxx11__enable_ifIXsr9__is_charIT_EE7__valueEbE6__typeERKSbIS2_St11char_traitsIS2_ESaIS2_EESA_,comdat
	.weak	_ZSteqIcEN9__gnu_cxx11__enable_ifIXsr9__is_charIT_EE7__valueEbE6__typeERKSbIS2_St11char_traitsIS2_ESaIS2_EESA_
	.align	16, 0x90
	.type	_ZSteqIcEN9__gnu_cxx11__enable_ifIXsr9__is_charIT_EE7__valueEbE6__typeERKSbIS2_St11char_traitsIS2_ESaIS2_EESA_,@function
_ZSteqIcEN9__gnu_cxx11__enable_ifIXsr9__is_charIT_EE7__valueEbE6__typeERKSbIS2_St11char_traitsIS2_ESaIS2_EESA_: # @_ZSteqIcEN9__gnu_cxx11__enable_ifIXsr9__is_charIT_EE7__valueEbE6__typeERKSbIS2_St11char_traitsIS2_ESaIS2_EESA_
.Ltmp1482:
	.cfi_startproc
# BB#0:
	pushl	%edi
.Ltmp1483:
	.cfi_def_cfa_offset 8
	pushl	%esi
.Ltmp1484:
	.cfi_def_cfa_offset 12
	subl	$20, %esp
.Ltmp1485:
	.cfi_def_cfa_offset 32
.Ltmp1486:
	.cfi_offset %esi, -12
.Ltmp1487:
	.cfi_offset %edi, -8
	movl	32(%esp), %eax
	movl	%eax, 16(%esp)
	movl	36(%esp), %eax
	movl	%eax, 12(%esp)
	movl	16(%esp), %eax
	movl	%eax, (%esp)
	calll	_ZNKSs4sizeEv
	movl	%eax, %esi
	movl	12(%esp), %eax
	movl	%eax, (%esp)
	calll	_ZNKSs4sizeEv
	xorb	%cl, %cl
	cmpl	%eax, %esi
	jne	.LBB164_2
# BB#1:
	movl	16(%esp), %eax
	movl	%eax, (%esp)
	calll	_ZNKSs4dataEv
	movl	%eax, %esi
	movl	12(%esp), %eax
	movl	%eax, (%esp)
	calll	_ZNKSs4dataEv
	movl	%eax, %edi
	movl	16(%esp), %eax
	movl	%eax, (%esp)
	calll	_ZNKSs4sizeEv
	movl	%eax, 8(%esp)
	movl	%edi, 4(%esp)
	movl	%esi, (%esp)
	calll	_ZNSt11char_traitsIcE7compareEPKcS2_j
	testl	%eax, %eax
	sete	%cl
.LBB164_2:
	movzbl	%cl, %eax
	addl	$20, %esp
	popl	%esi
	popl	%edi
	ret
.Ltmp1488:
	.size	_ZSteqIcEN9__gnu_cxx11__enable_ifIXsr9__is_charIT_EE7__valueEbE6__typeERKSbIS2_St11char_traitsIS2_ESaIS2_EESA_, .Ltmp1488-_ZSteqIcEN9__gnu_cxx11__enable_ifIXsr9__is_charIT_EE7__valueEbE6__typeERKSbIS2_St11char_traitsIS2_ESaIS2_EESA_
.Ltmp1489:
	.cfi_endproc
.Leh_func_end164:

	.text
	.globl	_ZNK2pp3Var8AsStringEv
	.align	16, 0x90
	.type	_ZNK2pp3Var8AsStringEv,@function
_ZNK2pp3Var8AsStringEv:                 # @_ZNK2pp3Var8AsStringEv
.Ltmp1498:
	.cfi_startproc
	.cfi_personality 0, __gxx_personality_v0
.Leh_func_begin165:
	.cfi_lsda 0, .Lexception165
# BB#0:
	pushl	%ebp
.Ltmp1499:
	.cfi_def_cfa_offset 8
	pushl	%ebx
.Ltmp1500:
	.cfi_def_cfa_offset 12
	pushl	%edi
.Ltmp1501:
	.cfi_def_cfa_offset 16
	pushl	%esi
.Ltmp1502:
	.cfi_def_cfa_offset 20
	subl	$76, %esp
.Ltmp1503:
	.cfi_def_cfa_offset 96
.Ltmp1504:
	.cfi_offset %esi, -20
.Ltmp1505:
	.cfi_offset %edi, -16
.Ltmp1506:
	.cfi_offset %ebx, -12
.Ltmp1507:
	.cfi_offset %ebp, -8
	movl	100(%esp), %esi
	movl	%esi, 72(%esp)
	movl	%esi, (%esp)
	calll	_ZNK2pp3Var9is_stringEv
	testb	%al, %al
	je	.LBB165_7
# BB#1:
	movl	96(%esp), %edi
	calll	_ZN2pp12_GLOBAL__N_113has_interfaceI11PPB_Var_1_0EEbv
	testb	%al, %al
	jne	.LBB165_3
# BB#2:
	movl	%edi, (%esp)
	calll	_ZNSsC1Ev
	jmp	.LBB165_5
.LBB165_3:
	calll	_ZN2pp12_GLOBAL__N_113get_interfaceI11PPB_Var_1_0EEPKT_v
	movl	12(%eax), %eax
	movsd	4(%esi), %xmm0
	movsd	12(%esi), %xmm1
	movsd	%xmm1, 56(%esp)
	movsd	%xmm0, 48(%esp)
	movsd	48(%esp), %xmm0
	movsd	56(%esp), %xmm1
	movsd	%xmm1, 8(%esp)
	movsd	%xmm0, (%esp)
	leal	68(%esp), %ecx
	movl	%ecx, 16(%esp)
	calll	*%eax
	movl	%eax, %esi
	movl	%esi, 64(%esp)
	movl	68(%esp), %ebp
	leal	40(%esp), %ebx
	movl	%ebx, (%esp)
	calll	_ZNSaIcEC1Ev
.Ltmp1490:
	movl	%ebx, 12(%esp)
	movl	%ebp, 8(%esp)
	movl	%esi, 4(%esp)
	movl	%edi, (%esp)
	calll	_ZNSsC1EPKcjRKSaIcE
.Ltmp1491:
# BB#4:
	movl	%ebx, (%esp)
	calll	_ZNSaIcED1Ev
.LBB165_5:
	addl	$76, %esp
	popl	%esi
	popl	%edi
	popl	%ebx
	popl	%ebp
	ret	$4
.LBB165_6:
.Ltmp1492:
	movl	%eax, 36(%esp)
	movl	%edx, 32(%esp)
	movl	%ebx, (%esp)
	calll	_ZNSaIcED1Ev
	movl	36(%esp), %eax
	movl	%eax, (%esp)
	calll	_Unwind_Resume
.LBB165_7:
	movl	$.L__PRETTY_FUNCTION__._ZNK2pp3Var8AsStringEv, 12(%esp)
	movl	$199, 8(%esp)
	movl	$.L.str126, 4(%esp)
	movl	$.L.str25, (%esp)
	calll	__assert_fail
.Ltmp1508:
	.size	_ZNK2pp3Var8AsStringEv, .Ltmp1508-_ZNK2pp3Var8AsStringEv
.Ltmp1509:
	.cfi_endproc
.Leh_func_end165:
	.section	.gcc_except_table,"a",@progbits
	.align	4
GCC_except_table165:
.Lexception165:
	.byte	255                     # @LPStart Encoding = omit
	.byte	0                       # @TType Encoding = absptr
	.byte	41                      # @TType base offset
	.byte	3                       # Call site Encoding = udata4
	.byte	39                      # Call site table length
.Lset358 = .Leh_func_begin165-.Leh_func_begin165 # >> Call Site 1 <<
	.long	.Lset358
.Lset359 = .Ltmp1490-.Leh_func_begin165 #   Call between .Leh_func_begin165 and .Ltmp1490
	.long	.Lset359
	.long	0                       #     has no landing pad
	.byte	0                       #   On action: cleanup
.Lset360 = .Ltmp1490-.Leh_func_begin165 # >> Call Site 2 <<
	.long	.Lset360
.Lset361 = .Ltmp1491-.Ltmp1490          #   Call between .Ltmp1490 and .Ltmp1491
	.long	.Lset361
.Lset362 = .Ltmp1492-.Leh_func_begin165 #     jumps to .Ltmp1492
	.long	.Lset362
	.byte	0                       #   On action: cleanup
.Lset363 = .Ltmp1491-.Leh_func_begin165 # >> Call Site 3 <<
	.long	.Lset363
.Lset364 = .Leh_func_end165-.Ltmp1491   #   Call between .Ltmp1491 and .Leh_func_end165
	.long	.Lset364
	.long	0                       #     has no landing pad
	.byte	0                       #   On action: cleanup
	.align	4

	.section	.text._ZNK2pp3Var7is_boolEv,"axG",@progbits,_ZNK2pp3Var7is_boolEv,comdat
	.weak	_ZNK2pp3Var7is_boolEv
	.align	16, 0x90
	.type	_ZNK2pp3Var7is_boolEv,@function
_ZNK2pp3Var7is_boolEv:                  # @_ZNK2pp3Var7is_boolEv
# BB#0:
	pushl	%eax
	movl	8(%esp), %eax
	movl	%eax, (%esp)
	cmpl	$2, 4(%eax)
	sete	%al
	movzbl	%al, %eax
	popl	%edx
	ret
.Ltmp1510:
	.size	_ZNK2pp3Var7is_boolEv, .Ltmp1510-_ZNK2pp3Var7is_boolEv

	.section	.text._ZNK2pp3Var6is_intEv,"axG",@progbits,_ZNK2pp3Var6is_intEv,comdat
	.weak	_ZNK2pp3Var6is_intEv
	.align	16, 0x90
	.type	_ZNK2pp3Var6is_intEv,@function
_ZNK2pp3Var6is_intEv:                   # @_ZNK2pp3Var6is_intEv
# BB#0:
	pushl	%eax
	movl	8(%esp), %eax
	movl	%eax, (%esp)
	cmpl	$3, 4(%eax)
	sete	%al
	movzbl	%al, %eax
	popl	%edx
	ret
.Ltmp1511:
	.size	_ZNK2pp3Var6is_intEv, .Ltmp1511-_ZNK2pp3Var6is_intEv

	.section	.text._ZNK2pp3Var9is_doubleEv,"axG",@progbits,_ZNK2pp3Var9is_doubleEv,comdat
	.weak	_ZNK2pp3Var9is_doubleEv
	.align	16, 0x90
	.type	_ZNK2pp3Var9is_doubleEv,@function
_ZNK2pp3Var9is_doubleEv:                # @_ZNK2pp3Var9is_doubleEv
# BB#0:
	pushl	%eax
	movl	8(%esp), %eax
	movl	%eax, (%esp)
	cmpl	$4, 4(%eax)
	sete	%al
	movzbl	%al, %eax
	popl	%edx
	ret
.Ltmp1512:
	.size	_ZNK2pp3Var9is_doubleEv, .Ltmp1512-_ZNK2pp3Var9is_doubleEv

	.section	.text._ZNK2pp3Var9is_stringEv,"axG",@progbits,_ZNK2pp3Var9is_stringEv,comdat
	.weak	_ZNK2pp3Var9is_stringEv
	.align	16, 0x90
	.type	_ZNK2pp3Var9is_stringEv,@function
_ZNK2pp3Var9is_stringEv:                # @_ZNK2pp3Var9is_stringEv
# BB#0:
	pushl	%eax
	movl	8(%esp), %eax
	movl	%eax, (%esp)
	cmpl	$5, 4(%eax)
	sete	%al
	movzbl	%al, %eax
	popl	%edx
	ret
.Ltmp1513:
	.size	_ZNK2pp3Var9is_stringEv, .Ltmp1513-_ZNK2pp3Var9is_stringEv

	.text
	.globl	_ZNK2pp3Var11DebugStringEv
	.align	16, 0x90
	.type	_ZNK2pp3Var11DebugStringEv,@function
_ZNK2pp3Var11DebugStringEv:             # @_ZNK2pp3Var11DebugStringEv
.Ltmp1532:
	.cfi_startproc
	.cfi_personality 0, __gxx_personality_v0
.Leh_func_begin170:
	.cfi_lsda 0, .Lexception170
# BB#0:
	pushl	%edi
.Ltmp1533:
	.cfi_def_cfa_offset 8
	pushl	%esi
.Ltmp1534:
	.cfi_def_cfa_offset 12
	subl	$324, %esp              # imm = 0x144
.Ltmp1535:
	.cfi_def_cfa_offset 336
.Ltmp1536:
	.cfi_offset %esi, -12
.Ltmp1537:
	.cfi_offset %edi, -8
	movl	340(%esp), %edi
	movl	%edi, 320(%esp)
	movl	%edi, (%esp)
	calll	_ZNK2pp3Var12is_undefinedEv
	movl	336(%esp), %esi
	testb	%al, %al
	je	.LBB170_2
# BB#1:
	leal	64(%esp), %eax
	movl	%eax, (%esp)
	movl	$.L.str227, 8(%esp)
	jmp	.LBB170_21
.LBB170_2:
	movl	%edi, (%esp)
	calll	_ZNK2pp3Var7is_nullEv
	cmpb	$1, %al
	jne	.LBB170_4
# BB#3:
	leal	64(%esp), %eax
	movl	%eax, (%esp)
	movl	$.L.str328, 8(%esp)
	jmp	.LBB170_21
.LBB170_4:
	movl	%edi, (%esp)
	calll	_ZNK2pp3Var7is_boolEv
	cmpb	$1, %al
	jne	.LBB170_6
# BB#5:
	movl	%edi, (%esp)
	calll	_ZNK2pp3Var6AsBoolEv
	movl	$.L.str4, %ecx
	testb	%al, %al
	movl	$.L.str5, %eax
	cmovnel	%ecx, %eax
	movl	%eax, 8(%esp)
	leal	64(%esp), %eax
	movl	%eax, (%esp)
	jmp	.LBB170_21
.LBB170_6:
	movl	%edi, (%esp)
	calll	_ZNK2pp3Var6is_intEv
	cmpb	$1, %al
	jne	.LBB170_8
# BB#7:
	movl	%edi, (%esp)
	calll	_ZNK2pp3Var5AsIntEv
	movl	%eax, 12(%esp)
	leal	64(%esp), %eax
	movl	%eax, (%esp)
	movl	$.L.str6, 8(%esp)
	jmp	.LBB170_21
.LBB170_8:
	movl	%edi, (%esp)
	calll	_ZNK2pp3Var9is_doubleEv
	cmpb	$1, %al
	jne	.LBB170_10
# BB#9:
	movl	%edi, (%esp)
	calll	_ZNK2pp3Var8AsDoubleEv
	fstpl	12(%esp)
	leal	64(%esp), %eax
	movl	%eax, (%esp)
	movl	$.L.str7, 8(%esp)
	jmp	.LBB170_21
.LBB170_10:
	movl	%edi, (%esp)
	calll	_ZNK2pp3Var9is_stringEv
	cmpb	$1, %al
	jne	.LBB170_17
# BB#11:
	movw	$62, 60(%esp)
	movl	$661857575, 56(%esp)    # imm = 0x27732527
	movl	$1014128982, 52(%esp)   # imm = 0x3C726156
	movl	$8, 48(%esp)
	movl	$248, 44(%esp)
	movl	%edi, 4(%esp)
	leal	40(%esp), %edi
	movl	%edi, (%esp)
	calll	_ZNK2pp3Var8AsStringEv
	subl	$4, %esp
.Ltmp1514:
	movl	%edi, (%esp)
	calll	_ZNKSs6lengthEv
.Ltmp1515:
# BB#12:
	cmpl	44(%esp), %eax
	jbe	.LBB170_15
# BB#13:
	movl	44(%esp), %eax
.Ltmp1516:
	addl	$-3, %eax
	movl	%eax, 4(%esp)
	movl	%edi, (%esp)
	calll	_ZNSs6resizeEj
.Ltmp1517:
# BB#14:
.Ltmp1518:
	movl	%edi, (%esp)
	movl	$.L.str8, 4(%esp)
	calll	_ZNSs6appendEPKc
.Ltmp1519:
.LBB170_15:
.Ltmp1520:
	movl	%edi, (%esp)
	calll	_ZNKSs5c_strEv
.Ltmp1521:
# BB#16:
	movl	%eax, 12(%esp)
	leal	52(%esp), %eax
	movl	%eax, 8(%esp)
	leal	64(%esp), %eax
	movl	%eax, (%esp)
	movl	$256, 4(%esp)           # imm = 0x100
	calll	snprintf
	movl	%edi, (%esp)
	calll	_ZNSsD1Ev
	jmp	.LBB170_22
.LBB170_17:
	movl	%edi, (%esp)
	calll	_ZNK2pp3Var15is_array_bufferEv
	cmpb	$1, %al
	jne	.LBB170_19
# BB#18:
	leal	64(%esp), %eax
	movl	%eax, (%esp)
	movl	$.L.str9, 8(%esp)
	jmp	.LBB170_21
.LBB170_19:
	movl	%edi, (%esp)
	calll	_ZNK2pp3Var9is_objectEv
	cmpb	$1, %al
	jne	.LBB170_22
# BB#20:
	leal	64(%esp), %eax
	movl	%eax, (%esp)
	movl	$.L.str10, 8(%esp)
.LBB170_21:
	movl	$256, 4(%esp)           # imm = 0x100
	calll	snprintf
.LBB170_22:
	leal	24(%esp), %edi
	movl	%edi, (%esp)
	calll	_ZNSaIcEC1Ev
.Ltmp1526:
	movl	%edi, 8(%esp)
	leal	64(%esp), %eax
	movl	%eax, 4(%esp)
	movl	%esi, (%esp)
	calll	_ZNSsC1EPKcRKSaIcE
.Ltmp1527:
# BB#23:
	movl	%edi, (%esp)
	calll	_ZNSaIcED1Ev
	addl	$324, %esp              # imm = 0x144
	popl	%esi
	popl	%edi
	ret	$4
.LBB170_24:
.Ltmp1528:
	movl	%eax, 36(%esp)
	movl	%edx, 32(%esp)
	movl	%edi, (%esp)
	calll	_ZNSaIcED1Ev
.LBB170_25:
	movl	36(%esp), %eax
	movl	%eax, (%esp)
	calll	_Unwind_Resume
.LBB170_26:
.Ltmp1522:
	movl	%eax, 36(%esp)
	movl	%edx, 32(%esp)
.Ltmp1523:
	movl	%edi, (%esp)
	calll	_ZNSsD1Ev
.Ltmp1524:
	jmp	.LBB170_25
.LBB170_27:
.Ltmp1525:
	calll	_ZSt9terminatev
.Ltmp1538:
	.size	_ZNK2pp3Var11DebugStringEv, .Ltmp1538-_ZNK2pp3Var11DebugStringEv
.Ltmp1539:
	.cfi_endproc
.Leh_func_end170:
	.section	.gcc_except_table,"a",@progbits
	.align	4
GCC_except_table170:
.Lexception170:
	.byte	255                     # @LPStart Encoding = omit
	.byte	0                       # @TType Encoding = absptr
	.byte	227                     # @TType base offset
	.zero	1,128
	.zero	1
	.byte	3                       # Call site Encoding = udata4
	.byte	91                      # Call site table length
.Lset365 = .Leh_func_begin170-.Leh_func_begin170 # >> Call Site 1 <<
	.long	.Lset365
.Lset366 = .Ltmp1514-.Leh_func_begin170 #   Call between .Leh_func_begin170 and .Ltmp1514
	.long	.Lset366
	.long	0                       #     has no landing pad
	.byte	0                       #   On action: cleanup
.Lset367 = .Ltmp1514-.Leh_func_begin170 # >> Call Site 2 <<
	.long	.Lset367
.Lset368 = .Ltmp1521-.Ltmp1514          #   Call between .Ltmp1514 and .Ltmp1521
	.long	.Lset368
.Lset369 = .Ltmp1522-.Leh_func_begin170 #     jumps to .Ltmp1522
	.long	.Lset369
	.byte	0                       #   On action: cleanup
.Lset370 = .Ltmp1521-.Leh_func_begin170 # >> Call Site 3 <<
	.long	.Lset370
.Lset371 = .Ltmp1526-.Ltmp1521          #   Call between .Ltmp1521 and .Ltmp1526
	.long	.Lset371
	.long	0                       #     has no landing pad
	.byte	0                       #   On action: cleanup
.Lset372 = .Ltmp1526-.Leh_func_begin170 # >> Call Site 4 <<
	.long	.Lset372
.Lset373 = .Ltmp1527-.Ltmp1526          #   Call between .Ltmp1526 and .Ltmp1527
	.long	.Lset373
.Lset374 = .Ltmp1528-.Leh_func_begin170 #     jumps to .Ltmp1528
	.long	.Lset374
	.byte	0                       #   On action: cleanup
.Lset375 = .Ltmp1527-.Leh_func_begin170 # >> Call Site 5 <<
	.long	.Lset375
.Lset376 = .Ltmp1523-.Ltmp1527          #   Call between .Ltmp1527 and .Ltmp1523
	.long	.Lset376
	.long	0                       #     has no landing pad
	.byte	0                       #   On action: cleanup
.Lset377 = .Ltmp1523-.Leh_func_begin170 # >> Call Site 6 <<
	.long	.Lset377
.Lset378 = .Ltmp1524-.Ltmp1523          #   Call between .Ltmp1523 and .Ltmp1524
	.long	.Lset378
.Lset379 = .Ltmp1525-.Leh_func_begin170 #     jumps to .Ltmp1525
	.long	.Lset379
	.byte	1                       #   On action: 1
.Lset380 = .Ltmp1524-.Leh_func_begin170 # >> Call Site 7 <<
	.long	.Lset380
.Lset381 = .Leh_func_end170-.Ltmp1524   #   Call between .Ltmp1524 and .Leh_func_end170
	.long	.Lset381
	.long	0                       #     has no landing pad
	.byte	0                       #   On action: cleanup
	.byte	1                       # >> Action Record 1 <<
                                        #   Catch TypeInfo 1
	.byte	0                       #   No further actions
                                        # >> Catch TypeInfos <<
	.long	0                       # TypeInfo 1
	.align	4

	.section	.text._ZNK2pp3Var12is_undefinedEv,"axG",@progbits,_ZNK2pp3Var12is_undefinedEv,comdat
	.weak	_ZNK2pp3Var12is_undefinedEv
	.align	16, 0x90
	.type	_ZNK2pp3Var12is_undefinedEv,@function
_ZNK2pp3Var12is_undefinedEv:            # @_ZNK2pp3Var12is_undefinedEv
# BB#0:
	pushl	%eax
	movl	8(%esp), %eax
	movl	%eax, (%esp)
	cmpl	$0, 4(%eax)
	sete	%al
	movzbl	%al, %eax
	popl	%edx
	ret
.Ltmp1540:
	.size	_ZNK2pp3Var12is_undefinedEv, .Ltmp1540-_ZNK2pp3Var12is_undefinedEv

	.section	.text._ZNK2pp3Var7is_nullEv,"axG",@progbits,_ZNK2pp3Var7is_nullEv,comdat
	.weak	_ZNK2pp3Var7is_nullEv
	.align	16, 0x90
	.type	_ZNK2pp3Var7is_nullEv,@function
_ZNK2pp3Var7is_nullEv:                  # @_ZNK2pp3Var7is_nullEv
# BB#0:
	pushl	%eax
	movl	8(%esp), %eax
	movl	%eax, (%esp)
	cmpl	$1, 4(%eax)
	sete	%al
	movzbl	%al, %eax
	popl	%edx
	ret
.Ltmp1541:
	.size	_ZNK2pp3Var7is_nullEv, .Ltmp1541-_ZNK2pp3Var7is_nullEv

	.section	.text._ZNK2pp3Var9is_objectEv,"axG",@progbits,_ZNK2pp3Var9is_objectEv,comdat
	.weak	_ZNK2pp3Var9is_objectEv
	.align	16, 0x90
	.type	_ZNK2pp3Var9is_objectEv,@function
_ZNK2pp3Var9is_objectEv:                # @_ZNK2pp3Var9is_objectEv
# BB#0:
	pushl	%eax
	movl	8(%esp), %eax
	movl	%eax, (%esp)
	cmpl	$6, 4(%eax)
	sete	%al
	movzbl	%al, %eax
	popl	%edx
	ret
.Ltmp1542:
	.size	_ZNK2pp3Var9is_objectEv, .Ltmp1542-_ZNK2pp3Var9is_objectEv

	.section	.text._ZNSt11char_traitsIcE7compareEPKcS2_j,"axG",@progbits,_ZNSt11char_traitsIcE7compareEPKcS2_j,comdat
	.weak	_ZNSt11char_traitsIcE7compareEPKcS2_j
	.align	16, 0x90
	.type	_ZNSt11char_traitsIcE7compareEPKcS2_j,@function
_ZNSt11char_traitsIcE7compareEPKcS2_j:  # @_ZNSt11char_traitsIcE7compareEPKcS2_j
# BB#0:
	subl	$28, %esp
	movl	32(%esp), %eax
	movl	%eax, 24(%esp)
	movl	36(%esp), %eax
	movl	%eax, 20(%esp)
	movl	40(%esp), %ecx
	movl	%ecx, 16(%esp)
	movl	24(%esp), %eax
	movl	20(%esp), %edx
	movl	%ecx, 8(%esp)
	movl	%edx, 4(%esp)
	movl	%eax, (%esp)
	calll	memcmp
	addl	$28, %esp
	ret
.Ltmp1543:
	.size	_ZNSt11char_traitsIcE7compareEPKcS2_j, .Ltmp1543-_ZNSt11char_traitsIcE7compareEPKcS2_j

	.text
	.align	16, 0x90
	.type	_ZN2pp12_GLOBAL__N_114interface_nameI11PPB_Var_1_0EEPKcv,@function
_ZN2pp12_GLOBAL__N_114interface_nameI11PPB_Var_1_0EEPKcv: # @_ZN2pp12_GLOBAL__N_114interface_nameI11PPB_Var_1_0EEPKcv
# BB#0:
	movl	$.L.str11, %eax
	ret
.Ltmp1544:
	.size	_ZN2pp12_GLOBAL__N_114interface_nameI11PPB_Var_1_0EEPKcv, .Ltmp1544-_ZN2pp12_GLOBAL__N_114interface_nameI11PPB_Var_1_0EEPKcv

	.align	16, 0x90
	.type	_ZN2pp12_GLOBAL__N_113has_interfaceI11PPB_Var_1_1EEbv,@function
_ZN2pp12_GLOBAL__N_113has_interfaceI11PPB_Var_1_1EEbv: # @_ZN2pp12_GLOBAL__N_113has_interfaceI11PPB_Var_1_1EEbv
.Ltmp1546:
	.cfi_startproc
# BB#0:
	subl	$12, %esp
.Ltmp1547:
	.cfi_def_cfa_offset 16
	calll	_ZN2pp12_GLOBAL__N_113get_interfaceI11PPB_Var_1_1EEPKT_v
	testl	%eax, %eax
	setne	%al
	movzbl	%al, %eax
	addl	$12, %esp
	ret
.Ltmp1548:
	.size	_ZN2pp12_GLOBAL__N_113has_interfaceI11PPB_Var_1_1EEbv, .Ltmp1548-_ZN2pp12_GLOBAL__N_113has_interfaceI11PPB_Var_1_1EEbv
.Ltmp1549:
	.cfi_endproc
.Leh_func_end176:

	.align	16, 0x90
	.type	_ZN2pp12_GLOBAL__N_113get_interfaceI11PPB_Var_1_1EEPKT_v,@function
_ZN2pp12_GLOBAL__N_113get_interfaceI11PPB_Var_1_1EEPKT_v: # @_ZN2pp12_GLOBAL__N_113get_interfaceI11PPB_Var_1_1EEPKT_v
.Ltmp1559:
	.cfi_startproc
	.cfi_personality 0, __gxx_personality_v0
.Leh_func_begin177:
	.cfi_lsda 0, .Lexception177
# BB#0:
	pushl	%esi
.Ltmp1560:
	.cfi_def_cfa_offset 8
	subl	$24, %esp
.Ltmp1561:
	.cfi_def_cfa_offset 32
.Ltmp1562:
	.cfi_offset %esi, -8
	movb	_ZGVZN2pp12_GLOBAL__N_113get_interfaceI11PPB_Var_1_1EEPKT_vE5funcs, %al
	testb	%al, %al
	jne	.LBB177_6
# BB#1:
	movl	$_ZGVZN2pp12_GLOBAL__N_113get_interfaceI11PPB_Var_1_1EEPKT_vE5funcs, (%esp)
	calll	__cxa_guard_acquire
	testl	%eax, %eax
	je	.LBB177_6
# BB#2:
.Ltmp1550:
	calll	_ZN2pp6Module3GetEv
	movl	%eax, %esi
.Ltmp1551:
# BB#3:
.Ltmp1552:
	calll	_ZN2pp12_GLOBAL__N_114interface_nameI11PPB_Var_1_1EEPKcv
.Ltmp1553:
# BB#4:
.Ltmp1554:
	movl	%eax, 4(%esp)
	movl	%esi, (%esp)
	calll	_ZN2pp6Module19GetBrowserInterfaceEPKc
.Ltmp1555:
# BB#5:
	movl	%eax, _ZZN2pp12_GLOBAL__N_113get_interfaceI11PPB_Var_1_1EEPKT_vE5funcs
	movl	$_ZGVZN2pp12_GLOBAL__N_113get_interfaceI11PPB_Var_1_1EEPKT_vE5funcs, (%esp)
	calll	__cxa_guard_release
.LBB177_6:
	movl	_ZZN2pp12_GLOBAL__N_113get_interfaceI11PPB_Var_1_1EEPKT_vE5funcs, %eax
	addl	$24, %esp
	popl	%esi
	ret
.LBB177_7:
.Ltmp1556:
	movl	%eax, 20(%esp)
	movl	%edx, 16(%esp)
	movl	$_ZGVZN2pp12_GLOBAL__N_113get_interfaceI11PPB_Var_1_1EEPKT_vE5funcs, (%esp)
	calll	__cxa_guard_abort
	movl	20(%esp), %eax
	movl	%eax, (%esp)
	calll	_Unwind_Resume
.Ltmp1563:
	.size	_ZN2pp12_GLOBAL__N_113get_interfaceI11PPB_Var_1_1EEPKT_v, .Ltmp1563-_ZN2pp12_GLOBAL__N_113get_interfaceI11PPB_Var_1_1EEPKT_v
.Ltmp1564:
	.cfi_endproc
.Leh_func_end177:
	.section	.gcc_except_table,"a",@progbits
	.align	4
GCC_except_table177:
.Lexception177:
	.byte	255                     # @LPStart Encoding = omit
	.byte	0                       # @TType Encoding = absptr
	.byte	41                      # @TType base offset
	.byte	3                       # Call site Encoding = udata4
	.byte	39                      # Call site table length
.Lset382 = .Leh_func_begin177-.Leh_func_begin177 # >> Call Site 1 <<
	.long	.Lset382
.Lset383 = .Ltmp1550-.Leh_func_begin177 #   Call between .Leh_func_begin177 and .Ltmp1550
	.long	.Lset383
	.long	0                       #     has no landing pad
	.byte	0                       #   On action: cleanup
.Lset384 = .Ltmp1550-.Leh_func_begin177 # >> Call Site 2 <<
	.long	.Lset384
.Lset385 = .Ltmp1555-.Ltmp1550          #   Call between .Ltmp1550 and .Ltmp1555
	.long	.Lset385
.Lset386 = .Ltmp1556-.Leh_func_begin177 #     jumps to .Ltmp1556
	.long	.Lset386
	.byte	0                       #   On action: cleanup
.Lset387 = .Ltmp1555-.Leh_func_begin177 # >> Call Site 3 <<
	.long	.Lset387
.Lset388 = .Leh_func_end177-.Ltmp1555   #   Call between .Ltmp1555 and .Leh_func_end177
	.long	.Lset388
	.long	0                       #     has no landing pad
	.byte	0                       #   On action: cleanup
	.align	4

	.section	.text._ZNK2pp6Module9pp_moduleEv,"axG",@progbits,_ZNK2pp6Module9pp_moduleEv,comdat
	.weak	_ZNK2pp6Module9pp_moduleEv
	.align	16, 0x90
	.type	_ZNK2pp6Module9pp_moduleEv,@function
_ZNK2pp6Module9pp_moduleEv:             # @_ZNK2pp6Module9pp_moduleEv
# BB#0:
	pushl	%eax
	movl	8(%esp), %eax
	movl	%eax, (%esp)
	movl	28(%eax), %eax
	popl	%edx
	ret
.Ltmp1565:
	.size	_ZNK2pp6Module9pp_moduleEv, .Ltmp1565-_ZNK2pp6Module9pp_moduleEv

	.section	.text._Z11PP_MakeNullv,"axG",@progbits,_Z11PP_MakeNullv,comdat
	.weak	_Z11PP_MakeNullv
	.align	16, 0x90
	.type	_Z11PP_MakeNullv,@function
_Z11PP_MakeNullv:                       # @_Z11PP_MakeNullv
# BB#0:
	movsd	.L_ZZ11PP_MakeNullvE6result+8, %xmm0
	movl	4(%esp), %eax
	movsd	%xmm0, 8(%eax)
	movsd	.L_ZZ11PP_MakeNullvE6result, %xmm0
	movsd	%xmm0, (%eax)
	ret	$4
.Ltmp1566:
	.size	_Z11PP_MakeNullv, .Ltmp1566-_Z11PP_MakeNullv

	.text
	.align	16, 0x90
	.type	_ZN2pp12_GLOBAL__N_114interface_nameI11PPB_Var_1_1EEPKcv,@function
_ZN2pp12_GLOBAL__N_114interface_nameI11PPB_Var_1_1EEPKcv: # @_ZN2pp12_GLOBAL__N_114interface_nameI11PPB_Var_1_1EEPKcv
# BB#0:
	movl	$.L.str12, %eax
	ret
.Ltmp1567:
	.size	_ZN2pp12_GLOBAL__N_114interface_nameI11PPB_Var_1_1EEPKcv, .Ltmp1567-_ZN2pp12_GLOBAL__N_114interface_nameI11PPB_Var_1_1EEPKcv

	.globl	_ZN2pp22InputEvent_HandleEventEii
	.align	16, 0x90
	.type	_ZN2pp22InputEvent_HandleEventEii,@function
_ZN2pp22InputEvent_HandleEventEii:      # @_ZN2pp22InputEvent_HandleEventEii
.Ltmp1580:
	.cfi_startproc
	.cfi_personality 0, __gxx_personality_v0
.Leh_func_begin181:
	.cfi_lsda 0, .Lexception181
# BB#0:
	pushl	%ebx
.Ltmp1581:
	.cfi_def_cfa_offset 8
	pushl	%edi
.Ltmp1582:
	.cfi_def_cfa_offset 12
	pushl	%esi
.Ltmp1583:
	.cfi_def_cfa_offset 16
	subl	$48, %esp
.Ltmp1584:
	.cfi_def_cfa_offset 64
.Ltmp1585:
	.cfi_offset %esi, -16
.Ltmp1586:
	.cfi_offset %edi, -12
.Ltmp1587:
	.cfi_offset %ebx, -8
	movl	64(%esp), %eax
	movl	%eax, 40(%esp)
	movl	68(%esp), %eax
	movl	%eax, 36(%esp)
	calll	_ZN2pp6Module3GetEv
	movl	%eax, 32(%esp)
	testl	%eax, %eax
	jne	.LBB181_2
# BB#1:
	movl	$0, 44(%esp)
	jmp	.LBB181_7
.LBB181_2:
	movl	32(%esp), %eax
	movl	40(%esp), %ecx
	movl	%ecx, 4(%esp)
	movl	%eax, (%esp)
	calll	_ZN2pp6Module21InstanceForPPInstanceEi
	movl	%eax, 28(%esp)
	testl	%eax, %eax
	jne	.LBB181_4
# BB#3:
	movl	$0, 44(%esp)
	jmp	.LBB181_7
.LBB181_4:
	movl	28(%esp), %esi
	movl	(%esi), %eax
	movl	24(%eax), %ebx
	movl	36(%esp), %eax
	movl	%eax, 4(%esp)
	leal	16(%esp), %edi
	movl	%edi, (%esp)
	calll	_ZN2pp10InputEventC1Ei
.Ltmp1568:
	movl	%edi, 4(%esp)
	movl	%esi, (%esp)
	calll	*%ebx
.Ltmp1569:
# BB#5:
.Ltmp1570:
	movzbl	%al, %eax
	movl	%eax, (%esp)
	calll	_Z11PP_FromBoolb
	movl	%eax, %esi
.Ltmp1571:
# BB#6:
	movl	%edi, (%esp)
	calll	_ZN2pp10InputEventD1Ev
